(dp0
S'AGK'
p1
(lp2
S'2007'
p3
aS'May'
p4
aS'6'
p5
asS'Dpbsmith'
p6
(lp7
S'2004'
p8
aS'Apr'
p9
aS'17'
p10
asS'Wiki alf'
p11
(lp12
S'2006'
p13
aS'Jan'
p14
aS'8'
p15
asS'Alkivar'
p16
(lp17
S'2005'
p18
aS'Nov'
p19
ag15
asS'Dustimagic'
p20
(lp21
S'2006'
p22
aS'March'
p23
aS'27'
p24
asS'Shadow1'
p25
(lp26
S'2007'
p27
aS'Feb'
p28
aS'12'
p29
asS'Radiant!'
p30
(lp31
S'2005'
p32
aS'June'
p33
aS'7'
p34
asS'Alex Shih'
p35
(lp36
S'2007'
p37
aS'May'
p38
aS'15'
p39
asS'Master Jay'
p40
(lp41
S'2006'
p42
aS'Apr'
p43
aS'16'
p44
asS'Derek Ross'
p45
(lp46
S'2004'
p47
aS'Nov'
p48
aS'16'
p49
asS'Raven4x4x'
p50
(lp51
S'2006'
p52
aS'Feb'
p53
aS'28'
p54
asS'Leithp'
p55
(lp56
S'2005'
p57
aS'Dec'
p58
aS'18'
p59
asS'^demon'
p60
(lp61
S'2007'
p62
aS'March'
p63
aS'25'
p64
asS'Royalguard11'
p65
(lp66
S'2006'
p67
aS'Dec'
p68
aS'16'
p69
asS'Kungfuadam'
p70
(lp71
S'2006'
p72
aS'Apr'
p73
ag34
asS'Tizio'
p74
(lp75
S'2006'
p76
aS'Feb'
p77
aS'28'
p78
asS'Lightdarkness'
p79
(lp80
S'2006'
p81
aS'Apr'
p82
aS'17'
p83
asS'Warofdreams'
p84
(lp85
S'2004'
p86
aS'Feb'
p87
aS'17'
p88
asS'Rich Farmbrough'
p89
(lp90
S'2005'
p91
aS'Feb'
p92
ag15
asS'Inter'
p93
(lp94
S'2005'
p95
aS'March'
p96
aS'31'
p97
asS'WhisperToMe'
p98
(lp99
S'2003'
p100
aS'Dec'
p101
aS'1'
p102
asS'William M. Connolley'
p103
(lp104
S'2006'
p105
aS'Jan'
p106
aS'14'
p107
asS'Awyong Jeffrey Mordecai Salleh'
p108
(lp109
S'2006'
p110
aS'Nov'
p111
aS'14'
p112
asS'Jfdwolff'
p113
(lp114
S'2004'
p115
aS'May'
p116
aS'11'
p117
asS'Camembert'
p118
(lp119
S'2002'
p120
aS'Nov'
p121
ag102
asS'Mulad'
p122
(lp123
S'2005'
p124
aS'June'
p125
aS'5'
p126
asS'Shanes'
p127
(lp128
S'2005'
p129
aS'Apr'
p130
aS'29'
p131
asS'JohnOwens'
p132
(lp133
S'2003'
p134
aS'Apr'
p135
ag102
asS'Seattle Skier'
p136
(lp137
S'2007'
p138
aS'May'
p139
aS'15'
p140
asS'Bbatsell'
p141
(lp142
S'2006'
p143
aS'Feb'
p144
ag15
asS'DanMS'
p145
(lp146
S'2007'
p147
aS'May'
p148
aS'30'
p149
asS'Ixfd64'
p150
(lp151
S'2005'
p152
aS'Sept'
p153
aS'21'
p154
asS'Utcursch'
p155
(lp156
S'2005'
p157
aS'Feb'
p158
aS'21'
p159
asS'SGGH'
p160
(lp161
S'2007'
p162
aS'March'
p163
aS'24'
p164
asS'Henry Flower'
p165
(lp166
S'2004'
p167
aS'July'
p168
aS'9'
p169
asS'StuffOfInterest'
p170
(lp171
S'2006'
p172
aS'Oct'
p173
ag169
asS'NYC JD'
p174
(lp175
S'2007'
p176
aS'Feb'
p177
aS'22'
p178
asS'Grutness'
p179
(lp180
S'2005'
p181
aS'Feb'
p182
aS'15'
p183
asS'Fred Bauder'
p184
(lp185
S'2003'
p186
aS'March'
p187
ag102
asS'LessHeard vanU'
p188
(lp189
S'2007'
p190
aS'May'
p191
aS'19'
p192
asS'Redvers'
p193
(lp194
S'2006'
p195
aS'March'
p196
aS'22'
p197
asS'Gnangarra'
p198
(lp199
S'2006'
p200
aS'Nov'
p201
aS'26'
p202
asS'Lar'
p203
(lp204
S'2006'
p205
aS'May'
p206
ag15
asS'Eloquence'
p207
(lp208
S'2003'
p209
aS'Feb'
p210
ag102
asS'CJLL Wright'
p211
(lp212
S'2007'
p213
aS'Jan'
p214
aS'24'
p215
asS'Anthere'
p216
(lp217
S'2003'
p218
aS'June'
p219
ag102
asS'Coelacan'
p220
(lp221
S'2007'
p222
aS'April'
p223
aS'15'
p224
asS'A Man In Black'
p225
(lp226
S'2005'
p227
aS'Oct'
p228
aS'2'
p229
asS'Angr'
p230
(lp231
S'2005'
p232
aS'Sept'
p233
aS'10'
p234
asS'Finlay McWalter'
p235
(lp236
S'2003'
p237
aS'Dec'
p238
ag102
asS'Rx StrangeLove'
p239
(lp240
S'2005'
p241
aS'Sept'
p242
aS'12'
p243
asS'Tannin'
p244
(lp245
S'2003'
p246
aS'Apr'
p247
ag102
asS'Ed g2s'
p248
(lp249
S'2004'
p250
aS'July'
p251
aS'29'
p252
asS'Sfoskett'
p253
(lp254
S'2005'
p255
aS'Oct'
p256
aS'28'
p257
asS'Acetic Acid'
p258
(lp259
S'2005'
p260
aS'Oct'
p261
aS'31'
p262
asS'ALoan'
p263
(lp264
S'2004'
p265
aS'Oct'
p266
aS'11'
p267
asS'JWSchmidt'
p268
(lp269
S'2005'
p270
aS'Dec'
p271
aS'12'
p272
asS'Newyorkbrad'
p273
(lp274
S'2007'
p275
aS'Jan'
p276
aS'21'
p277
asS'Croat Canuck'
p278
(lp279
S'2007'
p280
aS'May'
p281
ag229
asS'Arthur Rubin'
p282
(lp283
S'2006'
p284
aS'July'
p285
aS'20'
p286
asS'Zippy'
p287
(lp288
S'2003'
p289
aS'July'
p290
ag102
asS'Ragesoss'
p291
(lp292
S'2007'
p293
aS'April'
p294
aS'27'
p295
asS'Heimstern'
p296
(lp297
S'2007'
p298
aS'Feb'
p299
aS'16'
p300
asS'Adam Cuerden'
p301
(lp302
S'2007'
p303
aS'March'
p304
ag229
asS'Bkonrad'
p305
(lp306
S'2004'
p307
aS'May'
p308
aS'29'
p309
asS'BrownHairedGirl'
p310
(lp311
S'2006'
p312
aS'May'
p313
aS'15'
p314
asS'PedanticallySpeaking'
p315
(lp316
S'2004'
p317
aS'Dec'
p318
aS'16'
p319
asS'Montrealais'
p320
(lp321
S'2003'
p322
aS'Apr'
p323
ag102
asS'Merphant'
p324
(lp325
S'2003'
p326
aS'July'
p327
ag102
asS'Fennec'
p328
(lp329
S'2004'
p330
aS'Apr'
p331
aS'3'
p332
asS'Scm83x'
p333
(lp334
S'2006'
p335
aS'March'
p336
aS'25'
p337
asS'MastCell'
p338
(lp339
S'2007'
p340
aS'May'
p341
aS'12'
p342
asS'Freakofnurture'
p343
(lp344
S'2005'
p345
aS'Dec'
p346
aS'17'
p347
asS'Joe Beaudoin Jr.'
p348
(lp349
S'2005'
p350
aS'Dec'
p351
aS'21'
p352
asS'Wapcaplet'
p353
(lp354
S'2004'
p355
aS'Nov'
p356
aS'16'
p357
asS'Joelr31'
p358
(lp359
S'2006'
p360
aS'May'
p361
aS'18'
p362
asS'Whouk'
p363
(lp364
S'2006'
p365
aS'May'
p366
aS'15'
p367
asS'Admrboltz'
p368
(lp369
S'2006'
p370
aS'Jan'
p371
aS'13'
p372
asS'LittleDan'
p373
(lp374
S'2003'
p375
aS'March'
p376
ag102
asS'Shirahadasha'
p377
(lp378
S'2007'
p379
aS'April'
p380
aS'19'
p381
asS'Mzajac'
p382
(lp383
S'2005'
p384
aS'July'
p385
ag229
asS'Consumed Crustacean'
p386
(lp387
S'2006'
p388
aS'Aug'
p389
aS'21'
p390
asS'Voice of All'
p391
(lp392
S'2006'
p393
aS'Nov'
p394
aS'15'
p395
asS'Manning Bartlett'
p396
(lp397
S'2002'
p398
aS'Jan'
p399
ag102
asS'Titoxd'
p400
(lp401
S'2005'
p402
aS'Oct'
p403
aS'25'
p404
asS'Lectonar'
p405
(lp406
S'2005'
p407
aS'Sept'
p408
aS'12'
p409
asS'Banno'
p410
(lp411
S'2006'
p412
aS'Jan'
p413
aS'12'
p414
asS'Pastordavid'
p415
(lp416
S'2007'
p417
aS'May'
p418
aS'13'
p419
asS'SimonP'
p420
(lp421
S'2003'
p422
aS'Dec'
p423
ag102
asS'Mysid'
p424
(lp425
S'2007'
p426
aS'Jan'
p427
aS'22'
p428
asS'TexasAndroid'
p429
(lp430
S'2006'
p431
aS'Feb'
p432
aS'17'
p433
asS'Andris'
p434
(lp435
S'2004'
p436
aS'July'
p437
aS'29'
p438
asS'Khendon'
p439
(lp440
S'2002'
p441
aS'Nov'
p442
ag102
asS'Yelyos'
p443
(lp444
S'2005'
p445
aS'Nov'
p446
aS'23'
p447
asS'Siroxo'
p448
(lp449
S'2004'
p450
aS'Sept'
p451
ag229
asS'Will Beback'
p452
(lp453
S'2005'
p454
aS'June'
p455
aS'28'
p456
asS'FT2'
p457
(lp458
S'2007'
p459
aS'Jan'
p460
aS'19'
p461
asS'MacGyverMagic'
p462
(lp463
S'2004'
p464
aS'Dec'
p465
ag102
asS'Sugarfish'
p466
(lp467
S'2003'
p468
aS'Oct'
p469
ag102
asS'Arminius'
p470
(lp471
S'2004'
p472
aS'Sept'
p473
aS'17'
p474
asS'Alai'
p475
(lp476
S'2005'
p477
aS'Nov'
p478
ag126
asS'Y0u'
p479
(lp480
S'2005'
p481
aS'June'
p482
aS'30'
p483
asS'Wickethewok'
p484
(lp485
S'2006'
p486
aS'July'
p487
aS'31'
p488
asS'Heah'
p489
(lp490
S'2006'
p491
aS'Apr'
p492
ag34
asS'Gtrmp'
p493
(lp494
S'2004'
p495
aS'Sept'
p496
aS'10'
p497
asS'Jitse Niesen'
p498
(lp499
S'2005'
p500
aS'Aug'
p501
aS'19'
p502
asS'Ferkelparade'
p503
(lp504
S'2004'
p505
aS'Dec'
p506
aS'10'
p507
asS'Rspeer'
p508
(lp509
S'2006'
p510
aS'March'
p511
ag332
asS'Llywrch'
p512
(lp513
S'2003'
p514
aS'Sept'
p515
ag102
asS'David Gerard'
p516
(lp517
S'2004'
p518
aS'June'
p519
aS'16'
p520
asS'Masamage'
p521
(lp522
S'2007'
p523
aS'May'
p524
aS'20'
p525
asS'John Reaves'
p526
(lp527
S'2007'
p528
aS'March'
p529
aS'10'
p530
asS'Matt Crypto'
p531
(lp532
S'2004'
p533
aS'Oct'
p534
ag34
asS'Pilotguy'
p535
(lp536
S'2006'
p537
aS'June'
p538
aS'19'
p539
asS'Daveydweeb'
p540
(lp541
S'2006'
p542
aS'Dec'
p543
aS'4'
p544
asS'JesseW'
p545
(lp546
S'2005'
p547
aS'Aug'
p548
aS'31'
p549
asS'Xiner'
p550
(lp551
S'2007'
p552
aS'March'
p553
aS'13'
p554
asS'CatherineMunro'
p555
(lp556
S'2004'
p557
aS'Feb'
p558
aS'12'
p559
asS'Rlevse'
p560
(lp561
S'2007'
p562
aS'Feb'
p563
aS'27'
p564
asS'Nlu'
p565
(lp566
S'2005'
p567
aS'Nov'
p568
aS'19'
p569
asS'Cbrown1023'
p570
(lp571
S'2006'
p572
aS'Dec'
p573
aS'18'
p574
asS'Dalbury'
p575
(lp576
S'2006'
p577
aS'Nov'
p578
aS'13'
p579
asS'Ruud Koot'
p580
(lp581
S'2006'
p582
aS'March'
p583
ag544
asS'Gaillimh'
p584
(lp585
S'2007'
p586
aS'Feb'
p587
ag544
asS'Bastique'
p588
(lp589
S'2006'
p590
aS'May'
p591
aS'17'
p592
asS'Joke137'
p593
(lp594
S'2006'
p595
aS'Feb'
p596
ag34
asS'Tim Starling'
p597
(lp598
S'2003'
p599
aS'March'
p600
ag102
asS'Sesel'
p601
(lp602
S'2005'
p603
aS'Apr'
p604
ag102
asS'Zzyzx11'
p605
(lp606
S'2005'
p607
aS'June'
p608
ag5
asS'Gadfium'
p609
(lp610
S'2004'
p611
aS'Dec'
p612
aS'11'
p613
asS'Kyle Barbour'
p614
(lp615
S'2006'
p616
aS'May'
p617
ag126
asS'Qwghlm'
p618
(lp619
S'2007'
p620
aS'Jan'
p621
aS'30'
p622
asS'Necrothesp'
p623
(lp624
S'2005'
p625
aS'Nov'
p626
ag544
asS'Mackeriv'
p627
(lp628
S'2004'
p629
aS'Dec'
p630
aS'25'
p631
asS'SpuriousQ'
p632
(lp633
S'2007'
p634
aS'May'
p635
aS'25'
p636
asS'Justinc'
p637
(lp638
S'2005'
p639
aS'Oct'
p640
aS'14'
p641
asS'JDoorjam'
p642
(lp643
S'2006'
p644
aS'March'
p645
ag169
asS'Aude'
p646
(lp647
S'2006'
p648
aS'Feb'
p649
aS'22'
p650
asS'Mark83'
p651
(lp652
S'2006'
p653
aS'Apr'
p654
ag34
asS'Silence'
p655
(lp656
S'2006'
p657
aS'June'
p658
aS'14'
p659
asS'CBDunkerson'
p660
(lp661
S'2006'
p662
aS'Apr'
p663
ag332
asS'Jni'
p664
(lp665
S'2005'
p666
aS'Jan'
p667
aS'21'
p668
asS'Viridae'
p669
(lp670
S'2006'
p671
aS'Nov'
p672
aS'28'
p673
asS'Shanel'
p674
(lp675
S'2005'
p676
aS'Dec'
p677
aS'17'
p678
asS'Ezhiki'
p679
(lp680
S'2004'
p681
aS'Aug'
p682
aS'26'
p683
asS'Clarkk'
p684
(lp685
S'2005'
p686
aS'May'
p687
aS'17'
p688
asS'Davidcannon'
p689
(lp690
S'2004'
p691
aS'July'
p692
ag332
asS'Seth Ilys'
p693
(lp694
S'2004'
p695
aS'March'
p696
aS'19'
p697
asS'Kafziel'
p698
(lp699
S'2007'
p700
aS'Feb'
p701
ag34
asS'Kuru'
p702
(lp703
S'2007'
p704
aS'Jan'
p705
aS'25'
p706
asS'Savidan'
p707
(lp708
S'2007'
p709
aS'Jan'
p710
ag229
asS'Frazzydee'
p711
(lp712
S'2004'
p713
aS'Sept'
p714
ag126
asS'Sj'
p715
(lp716
S'2004'
p717
aS'Apr'
p718
ag34
asS'Nick'
p719
(lp720
S'2007'
p721
aS'Feb'
p722
aS'20'
p723
asS'Tim!'
p724
(lp725
S'2006'
p726
aS'Jan'
p727
ag332
asS'Jossi'
p728
(lp729
S'2005'
p730
aS'Oct'
p731
aS'15'
p732
asS'Christopher Sundita'
p733
(lp734
S'2006'
p735
aS'July'
p736
aS'13'
p737
asS'Tom'
p738
(lp739
S'2005'
p740
aS'Oct'
p741
aS'29'
p742
asS'BaronLarf'
p743
(lp744
S'2005'
p745
aS'Aug'
p746
aS'10'
p747
asS'Moink'
p748
(lp749
S'2004'
p750
aS'March'
p751
aS'22'
p752
asS'Georgewilliamherbert'
p753
(lp754
S'2007'
p755
aS'March'
p756
ag102
asS'Quercusrobur'
p757
(lp758
S'2003'
p759
aS'June'
p760
ag102
asS'Ganeshk'
p761
(lp762
S'2006'
p763
aS'June'
p764
aS'10'
p765
asS'Samsara'
p766
(lp767
S'2006'
p768
aS'July'
p769
aS'11'
p770
asS'Redux'
p771
(lp772
S'2005'
p773
aS'July'
p774
aS'28'
p775
asS'Mairi'
p776
(lp777
S'2005'
p778
aS'Oct'
p779
ag15
asS'Chuck SMITH'
p780
(lp781
S'2002'
p782
ag399
ag102
asS'Selket'
p783
(lp784
S'2007'
p785
aS'May'
p786
ag102
asS'Femto'
p787
(lp788
S'2006'
p789
aS'Nov'
p790
aS'12'
p791
asS'D. Recorder'
p792
(lp793
S'2006'
p794
aS'June'
p795
aS'17'
p796
asS'Kpjas'
p797
(lp798
S'2006'
p799
aS'Aug'
p800
aS'26'
p801
asS'Gray Porpoise'
p802
(lp803
S'2006'
p804
aS'Dec'
p805
ag126
asS'IanManka'
p806
(lp807
S'2006'
p808
aS'June'
p809
aS'15'
p810
asS'Khoikhoi'
p811
(lp812
S'2006'
p813
aS'Oct'
p814
aS'21'
p815
asS'Grandmasterka'
p816
(lp817
S'2006'
p818
aS'July'
p819
aS'14'
p820
asS'TerriersFan'
p821
(lp822
S'2007'
p823
aS'April'
p824
aS'24'
p825
asS'Samuel Blanning'
p826
(lp827
S'2006'
p828
aS'March'
p829
aS'22'
p830
asS'Smith03'
p831
(lp832
S'2003'
p833
aS'June'
p834
ag102
asS'Krimpet'
p835
(lp836
S'2007'
p837
aS'April'
p838
aS'29'
p839
asS'Mike Halterman'
p840
(lp841
S'2004'
p842
aS'Sept'
p843
ag34
asS'Crazycomputers'
p844
(lp845
S'2006'
p846
aS'Aug'
p847
ag5
asS'Laurascudder'
p848
(lp849
S'2006'
p850
aS'March'
p851
aS'27'
p852
asS'C.Fred'
p853
(lp854
S'2007'
p855
aS'May'
p856
aS'20'
p857
asS'Slrubenstein'
p858
(lp859
S'2003'
p860
aS'May'
p861
ag102
asS'Carioca'
p862
(lp863
S'2007'
p864
aS'May'
p865
aS'21'
p866
asS'Sjorford'
p867
(lp868
S'2006'
p869
aS'Feb'
p870
aS'14'
p871
asS'Metros232'
p872
(lp873
S'2006'
p874
aS'Nov'
p875
aS'20'
p876
asS'Kmccoy'
p877
(lp878
S'2005'
p879
aS'Aug'
p880
ag332
asS'Improv'
p881
(lp882
S'2005'
p883
aS'Feb'
p884
aS'20'
p885
asS'Kilo-Lima'
p886
(lp887
S'2006'
p888
aS'Apr'
p889
aS'15'
p890
asS'Dante Alighieri'
p891
(lp892
S'2003'
p893
aS'May'
p894
ag102
asS'Rama'
p895
(lp896
S'2005'
p897
aS'May'
p898
ag126
asS'Piotrus'
p899
(lp900
S'2005'
p901
aS'Jan'
p902
aS'26'
p903
asS'Jersyko'
p904
(lp905
S'2007'
p906
aS'Jan'
p907
aS'11'
p908
asS'Flcelloguy'
p909
(lp910
S'2005'
p911
aS'Aug'
p912
ag15
asS'MrDarcy'
p913
(lp914
S'2006'
p915
aS'Dec'
p916
ag34
asS'Gabbe'
p917
(lp918
S'2005'
p919
aS'Jan'
p920
aS'21'
p921
asS'Zanimum'
p922
(lp923
S'2003'
p924
aS'July'
p925
aS'20'
p926
asS'Mkmcconn'
p927
(lp928
S'2004'
p929
aS'March'
p930
ag34
asS'Nightstallion'
p931
(lp932
S'2006'
p933
aS'Jan'
p934
ag332
asS'Isomorphic'
p935
(lp936
S'2004'
p937
aS'March'
p938
ag169
asS'Horologium'
p939
(lp940
S'2008'
p941
aS'May'
p942
ag102
asS'Phil Bordelon'
p943
(lp944
S'2003'
p945
aS'June'
p946
ag102
asS'Mel Etitis'
p947
(lp948
S'2005'
p949
aS'Apr'
p950
ag5
asS'Jacoplane'
p951
(lp952
S'2005'
p953
aS'Dec'
p954
aS'25'
p955
asS'Kirill Lokshin'
p956
(lp957
S'2005'
p958
aS'Oct'
p959
aS'29'
p960
asS'Slambo'
p961
(lp962
S'2005'
p963
aS'March'
p964
aS'30'
p965
asS'Bobo192'
p966
(lp967
S'2006'
p968
aS'March'
p969
ag5
asS'Marumari'
p970
(lp971
S'2003'
p972
aS'July'
p973
ag102
asS'Sr13'
p974
(lp975
S'2007'
p976
aS'May'
p977
ag15
asS'Andrew c'
p978
(lp979
S'2007'
p980
aS'July'
p981
ag332
asS'Sebastiankessel'
p982
(lp983
S'2005'
p984
aS'Oct'
p985
aS'14'
p986
asS'Moriori'
p987
(lp988
S'2005'
p989
aS'July'
p990
aS'20'
p991
asS'TheParanoidOne'
p992
(lp993
S'2005'
p994
aS'Dec'
p995
ag544
asS'Beland'
p996
(lp997
S'2005'
p998
aS'Sept'
p999
ag544
asS'Angusmclellan'
p1000
(lp1001
S'2007'
p1002
aS'April'
p1003
aS'10'
p1004
asS'Borisblue'
p1005
(lp1006
S'2006'
p1007
aS'Sept'
p1008
aS'12'
p1009
asS'Rholton'
p1010
(lp1011
S'2005'
p1012
aS'Jan'
p1013
ag15
asS'Doc glasgow'
p1014
(lp1015
S'2006'
p1016
aS'Aug'
p1017
ag15
asS'ESkog'
p1018
(lp1019
S'2006'
p1020
aS'Feb'
p1021
aS'24'
p1022
asS'K1Bond007'
p1023
(lp1024
S'2005'
p1025
aS'Aug'
p1026
aS'19'
p1027
asS'Anas Salloum'
p1028
(lp1029
S'2007'
p1030
aS'May'
p1031
aS'20'
p1032
asS'Bjelleklang'
p1033
(lp1034
S'2007'
p1035
aS'May'
p1036
aS'22'
p1037
asS'Gyrofrog'
p1038
(lp1039
S'2005'
p1040
aS'Oct'
p1041
ag332
asS'DakotaKahn'
p1042
(lp1043
S'2006'
p1044
aS'March'
p1045
ag332
asS'Scott Burley'
p1046
(lp1047
S'2005'
p1048
aS'March'
p1049
aS'29'
p1050
asS'Adashiel'
p1051
(lp1052
S'2005'
p1053
aS'Dec'
p1054
aS'17'
p1055
asS'Gryffindor'
p1056
(lp1057
S'2006'
p1058
aS'Apr'
p1059
ag229
asS'Grenavitar'
p1060
(lp1061
S'2005'
p1062
aS'Oct'
p1063
aS'26'
p1064
asS'Hcheney'
p1065
(lp1066
S'2004'
p1067
aS'Apr'
p1068
aS'30'
p1069
asS'KFP'
p1070
(lp1071
S'2007'
p1072
aS'April'
p1073
ag5
asS'Wayward'
p1074
(lp1075
S'2005'
p1076
aS'Oct'
p1077
aS'17'
p1078
asS'Drini'
p1079
(lp1080
S'2005'
p1081
aS'Sept'
p1082
aS'14'
p1083
asS'GregRobson'
p1084
(lp1085
S'2005'
p1086
aS'July'
p1087
aS'21'
p1088
asS'JPD'
p1089
(lp1090
S'2006'
p1091
aS'Sept'
p1092
ag126
asS'Ianblair23'
p1093
(lp1094
S'2005'
p1095
aS'Nov'
p1096
aS'17'
p1097
asS'Moncrief'
p1098
(lp1099
S'2004'
p1100
aS'March'
p1101
aS'24'
p1102
asS'FCYTravis'
p1103
(lp1104
S'2005'
p1105
aS'July'
p1106
ag102
asS'Deathphoenix'
p1107
(lp1108
S'2005'
p1109
aS'Dec'
p1110
aS'24'
p1111
asS'Cryptic'
p1112
(lp1113
S'2005'
p1114
aS'Nov'
p1115
aS'12'
p1116
asS'XJamRastafire'
p1117
(lp1118
S'2004'
p1119
aS'Apr'
p1120
aS'28'
p1121
asS'Ugen64'
p1122
(lp1123
S'2005'
p1124
aS'May'
p1125
aS'31'
p1126
asS'Bubba hotep'
p1127
(lp1128
S'2007'
p1129
aS'March'
p1130
ag544
asS'ScottDavis'
p1131
(lp1132
S'2005'
p1133
aS'Nov'
p1134
ag332
asS'Johnleemk'
p1135
(lp1136
S'2004'
p1137
aS'June'
p1138
aS'26'
p1139
asS'Earl Andrew'
p1140
(lp1141
S'2004'
p1142
aS'Apr'
p1143
aS'27'
p1144
asS'Woohookitty'
p1145
(lp1146
S'2005'
p1147
aS'July'
p1148
ag5
asS'J Milburn'
p1149
(lp1150
S'2007'
p1151
aS'April'
p1152
aS'10'
p1153
asS'Thorpe'
p1154
(lp1155
S'2005'
p1156
aS'Dec'
p1157
aS'31'
p1158
asS'Irishguy'
p1159
(lp1160
S'2007'
p1161
aS'Feb'
p1162
aS'24'
p1163
asS'Briangotts'
p1164
(lp1165
S'2005'
p1166
aS'Aug'
p1167
aS'13'
p1168
asS'Soumyasch'
p1169
(lp1170
S'2007'
p1171
aS'April'
p1172
ag5
asS'Meno25'
p1173
(lp1174
S'2007'
p1175
aS'April'
p1176
ag5
asS'Vague Rant'
p1177
(lp1178
S'2005'
p1179
aS'Jan'
p1180
aS'20'
p1181
asS'Phils'
p1182
(lp1183
S'2005'
p1184
aS'Apr'
p1185
aS'21'
p1186
asS'VegaDark'
p1187
(lp1188
S'2007'
p1189
aS'Feb'
p1190
aS'15'
p1191
asS'Grue'
p1192
(lp1193
S'2005'
p1194
aS'June'
p1195
aS'22'
p1196
asS'EdwinHJ'
p1197
(lp1198
S'2005'
p1199
aS'Dec'
p1200
aS'22'
p1201
asS'DragonflySixtyseven'
p1202
(lp1203
S'2005'
p1204
aS'Oct'
p1205
ag169
asS'AnemoneProjectors'
p1206
(lp1207
S'2007'
p1208
aS'Feb'
p1209
aS'10'
p1210
asS'PFHLai'
p1211
(lp1212
S'2004'
p1213
aS'Aug'
p1214
aS'29'
p1215
asS'AlainV'
p1216
(lp1217
S'2004'
p1218
aS'May'
p1219
aS'10'
p1220
asS'Ikiroid'
p1221
(lp1222
S'2007'
p1223
aS'May'
p1224
aS'15'
p1225
asS'Pgk'
p1226
(lp1227
S'2006'
p1228
aS'Jan'
p1229
ag15
asS'Premeditated Chaos'
p1230
(lp1231
S'2004'
p1232
aS'Dec'
p1233
aS'28'
p1234
asS'Zocky'
p1235
(lp1236
S'2005'
p1237
aS'June'
p1238
ag15
asS'Steel359'
p1239
(lp1240
S'2006'
p1241
aS'Sept'
p1242
aS'14'
p1243
asS'SCZenz'
p1244
(lp1245
S'2005'
p1246
aS'Dec'
p1247
ag229
asS'CambridgeBayWeather'
p1248
(lp1249
S'2005'
p1250
aS'Oct'
p1251
aS'23'
p1252
asS'Coredesat'
p1253
(lp1254
S'2006'
p1255
aS'Oct'
p1256
aS'17'
p1257
asS'Nichalp'
p1258
(lp1259
S'2004'
p1260
aS'Sept'
p1261
aS'27'
p1262
asS'Jusjih'
p1263
(lp1264
S'2006'
p1265
aS'Oct'
p1266
aS'26'
p1267
asS'Jtdirl'
p1268
(lp1269
S'2003'
p1270
aS'June'
p1271
ag102
asS'Swatjester'
p1272
(lp1273
S'2007'
p1274
aS'Feb'
p1275
aS'16'
p1276
asS'Cyde'
p1277
(lp1278
S'2006'
p1279
aS'March'
p1280
ag169
asS'Rlquall'
p1281
(lp1282
S'2005'
p1283
aS'Apr'
p1284
ag126
asS'Thunderbrand'
p1285
(lp1286
S'2005'
p1287
aS'July'
p1288
aS'31'
p1289
asS'Alex756'
p1290
(lp1291
S'2003'
p1292
aS'Sept'
p1293
aS'20'
p1294
asS'Eugene van der Pijll'
p1295
(lp1296
S'2005'
p1297
aS'June'
p1298
ag15
asS'Who'
p1299
(lp1300
S'2005'
p1301
aS'Oct'
p1302
ag229
asS'JIP'
p1303
(lp1304
S'2005'
p1305
aS'Sept'
p1306
ag169
asS'Ngb'
p1307
(lp1308
S'2005'
p1309
aS'Aug'
p1310
aS'16'
p1311
asS'Deryck Chan'
p1312
(lp1313
S'2007'
p1314
aS'March'
p1315
ag229
asS'Moondyne'
p1316
(lp1317
S'2005'
p1318
aS'Dec'
p1319
aS'19'
p1320
asS'Aldux'
p1321
(lp1322
S'2006'
p1323
aS'July'
p1324
aS'12'
p1325
asS'Scientizzle'
p1326
(lp1327
S'2007'
p1328
aS'April'
p1329
aS'30'
p1330
asS'MaxSem'
p1331
(lp1332
S'2007'
p1333
aS'May'
p1334
aS'20'
p1335
asS'Magnus Manske'
p1336
(lp1337
S'2002'
p1338
ag399
ag102
asS'KnowledgeOfSelf'
p1339
(lp1340
S'2006'
p1341
aS'July'
p1342
aS'30'
p1343
asS'Evercat'
p1344
(lp1345
S'2005'
p1346
aS'May'
p1347
ag544
asS'Christopher Mahan'
p1348
(lp1349
S'2003'
p1350
aS'Nov'
p1351
ag102
asS'Marskell'
p1352
(lp1353
S'2007'
p1354
aS'Feb'
p1355
aS'24'
p1356
asS'Merope'
p1357
(lp1358
S'2006'
p1359
aS'Oct'
p1360
ag5
asS'JoanneB'
p1361
(lp1362
S'2005'
p1363
aS'Nov'
p1364
aS'19'
p1365
asS'Longhair'
p1366
(lp1367
S'2005'
p1368
aS'Aug'
p1369
ag102
asS'BradPatrick'
p1370
(lp1371
S'2006'
p1372
aS'Apr'
p1373
aS'14'
p1374
asS'Wizardman'
p1375
(lp1376
S'2007'
p1377
aS'Jan'
p1378
aS'29'
p1379
asS'AllyUnion'
p1380
(lp1381
S'2004'
p1382
aS'Dec'
p1383
aS'18'
p1384
asS'Fropuff'
p1385
(lp1386
S'2006'
p1387
aS'Jan'
p1388
aS'17'
p1389
asS'Sannse'
p1390
(lp1391
S'2003'
p1392
aS'March'
p1393
ag102
asS'Master Thief Garrett'
p1394
(lp1395
S'2005'
p1396
aS'July'
p1397
aS'22'
p1398
asS'Hoary'
p1399
(lp1400
S'2006'
p1401
aS'Apr'
p1402
ag126
asS'Loren36'
p1403
(lp1404
S'2005'
p1405
aS'Aug'
p1406
aS'15'
p1407
asS'SmthManly'
p1408
(lp1409
S'2005'
p1410
aS'Nov'
p1411
aS'11'
p1412
asS'Where'
p1413
(lp1414
S'2006'
p1415
aS'July'
p1416
ag229
asS'UninvitedCompany'
p1417
(lp1418
S'2004'
p1419
aS'Apr'
p1420
aS'24'
p1421
asS'Mdd4696'
p1422
(lp1423
S'2006'
p1424
aS'Apr'
p1425
ag34
asS'Lacrimosus'
p1426
(lp1427
S'2005'
p1428
aS'Aug'
p1429
aS'11'
p1430
asS'Orderinchaos'
p1431
(lp1432
S'2007'
p1433
aS'March'
p1434
aS'13'
p1435
asS'Scimitar'
p1436
(lp1437
S'2005'
p1438
aS'Sept'
p1439
ag102
asS'UtherSRG'
p1440
(lp1441
S'2004'
p1442
aS'Apr'
p1443
aS'17'
p1444
asS'Mr. Lefty'
p1445
(lp1446
S'2006'
p1447
aS'Sept'
p1448
aS'24'
p1449
asS'Rmhermen'
p1450
(lp1451
S'2004'
p1452
aS'July'
p1453
ag5
asS'Ssd'
p1454
(lp1455
S'2004'
p1456
aS'July'
p1457
aS'24'
p1458
asS'Blnguyen'
p1459
(lp1460
S'2006'
p1461
aS'May'
p1462
aS'29'
p1463
asS'Hiding'
p1464
(lp1465
S'2005'
p1466
aS'Nov'
p1467
aS'25'
p1468
asS'Gilliam'
p1469
(lp1470
S'2007'
p1471
aS'Feb'
p1472
ag126
asS'Menchi'
p1473
(lp1474
S'2003'
p1475
aS'June'
p1476
ag102
asS'JeLuF'
p1477
(lp1478
S'2002'
p1479
aS'Nov'
p1480
ag102
asS'Fuzheado'
p1481
(lp1482
S'2003'
p1483
aS'Oct'
p1484
ag102
asS'Ihcoyc'
p1485
(lp1486
S'2003'
p1487
aS'Nov'
p1488
ag102
asS'Ram-Man'
p1489
(lp1490
S'2003'
p1491
aS'June'
p1492
ag102
asS'Casliber'
p1493
(lp1494
S'2007'
p1495
aS'March'
p1496
aS'28'
p1497
asS'Searchme'
p1498
(lp1499
S'2007'
p1500
aS'May'
p1501
aS'14'
p1502
asS'Cohesion'
p1503
(lp1504
S'2006'
p1505
aS'Feb'
p1506
aS'25'
p1507
asS'Rogerd'
p1508
(lp1509
S'2006'
p1510
aS'Jan'
p1511
aS'12'
p1512
asS'Dave souza'
p1513
(lp1514
S'2005'
p1515
aS'Sept'
p1516
aS'13'
p1517
asS'Cacycle'
p1518
(lp1519
S'2005'
p1520
aS'March'
p1521
aS'15'
p1522
asS'Nufy8'
p1523
(lp1524
S'2005'
p1525
aS'Aug'
p1526
aS'31'
p1527
asS'El C'
p1528
(lp1529
S'2005'
p1530
aS'May'
p1531
ag102
asS'Kylu'
p1532
(lp1533
S'2006'
p1534
aS'July'
p1535
aS'18'
p1536
asS'Feydey'
p1537
(lp1538
S'2007'
p1539
aS'Jan'
p1540
aS'11'
p1541
asS'Staecker'
p1542
(lp1543
S'2007'
p1544
aS'April'
p1545
aS'15'
p1546
asS'Madchester'
p1547
(lp1548
S'2005'
p1549
aS'July'
p1550
aS'31'
p1551
asS'Sam'
p1552
(lp1553
S'2005'
p1554
aS'Dec'
p1555
aS'29'
p1556
asS'Enchanter'
p1557
(lp1558
S'2002'
p1559
aS'Aug'
p1560
ag102
asS'Adambiswanger1'
p1561
(lp1562
S'2006'
p1563
aS'Oct'
p1564
ag169
asS'Sue Anne'
p1565
(lp1566
S'2006'
p1567
aS'May'
p1568
aS'14'
p1569
asS'Catbar'
p1570
(lp1571
S'2004'
p1572
aS'May'
p1573
ag229
asS'Peruvianllama'
p1574
(lp1575
S'2006'
p1576
aS'Jan'
p1577
aS'29'
p1578
asS'Cyberjunkie'
p1579
(lp1580
S'2005'
p1581
aS'Oct'
p1582
aS'17'
p1583
asS'Bishonen'
p1584
(lp1585
S'2005'
p1586
aS'May'
p1587
ag15
asS'BradBeattie'
p1588
(lp1589
S'2007'
p1590
aS'Jan'
p1591
aS'21'
p1592
asS'Jc37'
p1593
(lp1594
S'2006'
p1595
aS'Dec'
p1596
aS'29'
p1597
asS'Capitalistroadster'
p1598
(lp1599
S'2005'
p1600
aS'Nov'
p1601
aS'11'
p1602
asS'Ktsquare'
p1603
(lp1604
S'2003'
p1605
aS'June'
p1606
ag102
asS'Wesley'
p1607
(lp1608
S'2004'
p1609
aS'March'
p1610
aS'11'
p1611
asS'Bogdangiusca'
p1612
(lp1613
S'2005'
p1614
aS'Dec'
p1615
aS'20'
p1616
asS'(aeropagitica)'
p1617
(lp1618
S'2006'
p1619
aS'March'
p1620
ag34
asS'Guettarda'
p1621
(lp1622
S'2005'
p1623
aS'June'
p1624
aS'21'
p1625
asS'Trebor'
p1626
(lp1627
S'2007'
p1628
aS'Feb'
p1629
aS'27'
p1630
asS'Ancheta Wis'
p1631
(lp1632
S'2005'
p1633
aS'Dec'
p1634
aS'30'
p1635
asS'1ne'
p1636
(lp1637
S'2005'
p1638
aS'Dec'
p1639
ag15
asS'BrianSmithson'
p1640
(lp1641
S'2005'
p1642
aS'Nov'
p1643
aS'12'
p1644
asS'AmiDaniel'
p1645
(lp1646
S'2006'
p1647
aS'May'
p1648
aS'30'
p1649
asS'GeeJo'
p1650
(lp1651
S'2006'
p1652
aS'Nov'
p1653
ag229
asS'Fishhead64'
p1654
(lp1655
S'2007'
p1656
aS'April'
p1657
aS'19'
p1658
asS'Shreshth91'
p1659
(lp1660
S'2005'
p1661
aS'Dec'
p1662
ag332
asS'Zero0000'
p1663
(lp1664
S'2004'
p1665
aS'Apr'
p1666
aS'22'
p1667
asS'Hyacinth'
p1668
(lp1669
S'2004'
p1670
aS'Nov'
p1671
aS'15'
p1672
asS'Hamster Sandwich'
p1673
(lp1674
S'2005'
p1675
aS'Dec'
p1676
ag229
asS'TKD'
p1677
(lp1678
S'2006'
p1679
aS'Oct'
p1680
aS'20'
p1681
asS'Osgoodelawyer'
p1682
(lp1683
S'2006'
p1684
aS'Nov'
p1685
ag102
asS'WikiLeon'
p1686
(lp1687
S'2005'
p1688
aS'Dec'
p1689
aS'12'
p1690
asS'Dweller'
p1691
(lp1692
S'2007'
p1693
aS'May'
p1694
aS'17'
p1695
asS'Trilobite'
p1696
(lp1697
S'2005'
p1698
aS'Apr'
p1699
aS'27'
p1700
asS'Vaoverland'
p1701
(lp1702
S'2005'
p1703
aS'March'
p1704
ag5
asS'Joy'
p1705
(lp1706
S'2004'
p1707
aS'Aug'
p1708
aS'12'
p1709
asS'Slumgum'
p1710
(lp1711
S'2007'
p1712
aS'May'
p1713
aS'10'
p1714
asS'Kaihsu'
p1715
(lp1716
S'2004'
p1717
aS'Feb'
p1718
ag5
asS'Daniel Quinlan'
p1719
(lp1720
S'2003'
p1721
aS'Oct'
p1722
ag102
asS'JYolkowski'
p1723
(lp1724
S'2005'
p1725
aS'June'
p1726
ag126
asS'SoLando'
p1727
(lp1728
S'2005'
p1729
aS'Dec'
p1730
aS'14'
p1731
asS'Ish ishwar'
p1732
(lp1733
S'2006'
p1734
aS'Feb'
p1735
ag34
asS'Sam Blacketer'
p1736
(lp1737
S'2007'
p1738
aS'April'
p1739
aS'28'
p1740
asS'Michaelas10'
p1741
(lp1742
S'2007'
p1743
aS'March'
p1744
aS'24'
p1745
asS'Ais523'
p1746
(lp1747
S'2007'
p1748
aS'March'
p1749
aS'30'
p1750
asS'Mirv'
p1751
(lp1752
S'2004'
p1753
aS'June'
p1754
ag102
asS'Wrp103'
p1755
(lp1756
S'2007'
p1757
aS'April'
p1758
aS'17'
p1759
asS'Future Perfect at Sunrise'
p1760
(lp1761
S'2006'
p1762
aS'Nov'
p1763
ag5
asS'WJBscribe'
p1764
(lp1765
S'2007'
p1766
aS'March'
p1767
aS'26'
p1768
asS'Dgrant'
p1769
(lp1770
S'2003'
p1771
aS'Sept'
p1772
ag102
asS'Esteffect'
p1773
(lp1774
S'2005'
p1775
aS'July'
p1776
ag332
asS'Shimgray'
p1777
(lp1778
S'2005'
p1779
aS'Nov'
p1780
ag332
asS'FireFox'
p1781
(lp1782
S'2005'
p1783
aS'Nov'
p1784
ag15
asS'Kjkolb'
p1785
(lp1786
S'2006'
p1787
aS'May'
p1788
aS'21'
p1789
asS'Conscious'
p1790
(lp1791
S'2006'
p1792
aS'May'
p1793
aS'28'
p1794
asS'OldakQuill'
p1795
(lp1796
S'2004'
p1797
aS'June'
p1798
aS'26'
p1799
asS'SCEhardt'
p1800
(lp1801
S'2005'
p1802
aS'Dec'
p1803
aS'10'
p1804
asS'TheoClarke'
p1805
(lp1806
S'2005'
p1807
aS'June'
p1808
aS'22'
p1809
asS'Conti'
p1810
(lp1811
S'2004'
p1812
aS'Aug'
p1813
aS'20'
p1814
asS'OwenX'
p1815
(lp1816
S'2005'
p1817
aS'Oct'
p1818
ag34
asS'Malo'
p1819
(lp1820
S'2005'
p1821
aS'Dec'
p1822
aS'21'
p1823
asS'Pablo-flores'
p1824
(lp1825
S'2005'
p1826
aS'Dec'
p1827
aS'14'
p1828
asS'COGDEN'
p1829
(lp1830
S'2004'
p1831
aS'Nov'
p1832
aS'12'
p1833
asS'Jimbo Wales'
p1834
(lp1835
S'2002'
p1836
ag399
ag102
asS'Brockert'
p1837
(lp1838
S'2004'
p1839
aS'Dec'
p1840
aS'16'
p1841
asS'Uncle G'
p1842
(lp1843
S'2005'
p1844
aS'July'
p1845
aS'12'
p1846
asS'Ligulem'
p1847
(lp1848
S'2006'
p1849
aS'Sept'
p1850
aS'25'
p1851
asS'Messedrocker'
p1852
(lp1853
S'2006'
p1854
aS'Sept'
p1855
aS'14'
p1856
asS'EWS23'
p1857
(lp1858
S'2006'
p1859
aS'May'
p1860
aS'23'
p1861
asS'Visorstuff'
p1862
(lp1863
S'2004'
p1864
aS'March'
p1865
aS'12'
p1866
asS'Kbh3rd'
p1867
(lp1868
S'2005'
p1869
aS'Dec'
p1870
ag5
asS'Ian13'
p1871
(lp1872
S'2006'
p1873
aS'March'
p1874
ag544
asS'Melchoir'
p1875
(lp1876
S'2006'
p1877
aS'Oct'
p1878
aS'19'
p1879
asS'Jwrosenzweig'
p1880
(lp1881
S'2003'
p1882
aS'Sept'
p1883
ag102
asS'The Anome'
p1884
(lp1885
S'2003'
p1886
aS'May'
p1887
ag102
asS'Dcoetzee'
p1888
(lp1889
S'2004'
p1890
aS'May'
p1891
ag126
asS'Charles Matthews'
p1892
(lp1893
S'2004'
p1894
aS'Feb'
p1895
aS'17'
p1896
asS'Ocatecir'
p1897
(lp1898
S'2007'
p1899
aS'May'
p1900
aS'27'
p1901
asS'David.Monniaux'
p1902
(lp1903
S'2004'
p1904
aS'May'
p1905
aS'10'
p1906
asS'Musical Linguist'
p1907
(lp1908
S'2005'
p1909
aS'Nov'
p1910
aS'22'
p1911
asS'Tom harrison'
p1912
(lp1913
S'2006'
p1914
aS'Jan'
p1915
ag544
asS'DanielCD'
p1916
(lp1917
S'2005'
p1918
aS'Aug'
p1919
aS'31'
p1920
asS'Buchanan-Hermit'
p1921
(lp1922
S'2006'
p1923
aS'May'
p1924
aS'23'
p1925
asS'Lucasbfr'
p1926
(lp1927
S'2007'
p1928
aS'May'
p1929
aS'21'
p1930
asS'PeaceNT'
p1931
(lp1932
S'2007'
p1933
aS'May'
p1934
aS'25'
p1935
asS'Gwernol'
p1936
(lp1937
S'2006'
p1938
aS'June'
p1939
aS'17'
p1940
asS'BigDT'
p1941
(lp1942
S'2007'
p1943
aS'Jan'
p1944
aS'12'
p1945
asS'Robth'
p1946
(lp1947
S'2006'
p1948
aS'Sept'
p1949
aS'14'
p1950
asS'ClockworkSoul'
p1951
(lp1952
S'2004'
p1953
aS'Nov'
p1954
aS'20'
p1955
asS'Duk'
p1956
(lp1957
S'2004'
p1958
aS'Dec'
p1959
aS'24'
p1960
asS'Canderson7'
p1961
(lp1962
S'2005'
p1963
aS'July'
p1964
aS'30'
p1965
asS'MyRedDice'
p1966
(lp1967
S'2003'
p1968
aS'March'
p1969
ag102
asS'Tregoweth'
p1970
(lp1971
S'2005'
p1972
aS'Oct'
p1973
aS'21'
p1974
asS'Larry V'
p1975
(lp1976
S'2006'
p1977
aS'Aug'
p1978
aS'22'
p1979
asS'Agentsoo'
p1980
(lp1981
S'2006'
p1982
aS'Aug'
p1983
aS'14'
p1984
asS'Wwoods'
p1985
(lp1986
S'2005'
p1987
aS'Apr'
p1988
aS'13'
p1989
asS'Texture'
p1990
(lp1991
S'2004'
p1992
aS'March'
p1993
ag5
asS'LiquidGhoul'
p1994
(lp1995
S'2006'
p1996
aS'July'
p1997
aS'18'
p1998
asS'Nv8200p'
p1999
(lp2000
S'2005'
p2001
aS'Sept'
p2002
aS'12'
p2003
asS'Xyrael'
p2004
(lp2005
S'2006'
p2006
aS'Sept'
p2007
ag229
asS'Rhymeless'
p2008
(lp2009
S'2004'
p2010
aS'Aug'
p2011
aS'21'
p2012
asS'Guinnog'
p2013
(lp2014
S'2006'
p2015
aS'Aug'
p2016
aS'30'
p2017
asS'Ilyanep'
p2018
(lp2019
S'2003'
p2020
aS'June'
p2021
ag102
asS'ReyBrujo'
p2022
(lp2023
S'2006'
p2024
aS'Nov'
p2025
aS'18'
p2026
asS'Karl Dickman'
p2027
(lp2028
S'2005'
p2029
aS'June'
p2030
ag34
asS'Tijuana Brass'
p2031
(lp2032
S'2006'
p2033
aS'May'
p2034
aS'29'
p2035
asS'Cowman109'
p2036
(lp2037
S'2006'
p2038
aS'Aug'
p2039
aS'11'
p2040
asS'Chrislk02'
p2041
(lp2042
S'2007'
p2043
aS'Feb'
p2044
ag102
asS'Dekimasu'
p2045
(lp2046
S'2007'
p2047
aS'May'
p2048
aS'14'
p2049
asS'David Kernow'
p2050
(lp2051
S'2006'
p2052
aS'Sept'
p2053
aS'13'
p2054
asS'DGG'
p2055
(lp2056
S'2007'
p2057
aS'May'
p2058
ag169
asS'Duja'
p2059
(lp2060
S'2006'
p2061
aS'Oct'
p2062
ag229
asS'Kbdank71'
p2063
(lp2064
S'2005'
p2065
aS'June'
p2066
aS'17'
p2067
asS'Fram'
p2068
(lp2069
S'2007'
p2070
aS'Feb'
p2071
aS'26'
p2072
asS'Pakaran'
p2073
(lp2074
S'2003'
p2075
aS'Dec'
p2076
ag102
asS'Gurubrahma'
p2077
(lp2078
S'2005'
p2079
aS'Dec'
p2080
ag5
asS'Reflex Reaction'
p2081
(lp2082
S'2005'
p2083
aS'Oct'
p2084
aS'28'
p2085
asS'Academic Challenger'
p2086
(lp2087
S'2004'
p2088
aS'Sept'
p2089
aS'10'
p2090
asS'Nihonjoe'
p2091
(lp2092
S'2006'
p2093
aS'May'
p2094
aS'11'
p2095
asS'Pratyeka'
p2096
(lp2097
S'2003'
p2098
aS'Nov'
p2099
ag102
asS'DavidWBrooks'
p2100
(lp2101
S'2004'
p2102
aS'Feb'
p2103
aS'20'
p2104
asS'Centrx'
p2105
(lp2106
S'2006'
p2107
aS'July'
p2108
aS'25'
p2109
asS'Rebecca'
p2110
(lp2111
S'2004'
p2112
aS'July'
p2113
aS'14'
p2114
asS'Meelar'
p2115
(lp2116
S'2004'
p2117
aS'Feb'
p2118
ag5
asS'Tone'
p2119
(lp2120
S'2006'
p2121
aS'May'
p2122
aS'26'
p2123
asS'Rick Block'
p2124
(lp2125
S'2005'
p2126
aS'Aug'
p2127
aS'21'
p2128
asS'Anthony Appleyard'
p2129
(lp2130
S'2007'
p2131
aS'April'
p2132
aS'18'
p2133
asS'Vicki Rosenzweig'
p2134
(lp2135
S'2002'
p2136
ag399
ag102
asS'Kaisershatner'
p2137
(lp2138
S'2006'
p2139
aS'Apr'
p2140
aS'17'
p2141
asS'Alhutch'
p2142
(lp2143
S'2005'
p2144
aS'Dec'
p2145
aS'14'
p2146
asS'InShaneee'
p2147
(lp2148
S'2006'
p2149
aS'Jan'
p2150
ag102
asS'Martinp23'
p2151
(lp2152
S'2006'
p2153
aS'Nov'
p2154
aS'18'
p2155
asS'Brion VIBBER'
p2156
(lp2157
S'2002'
p2158
aS'Aug'
p2159
ag102
asS'Cedar-Guardian'
p2160
(lp2161
S'2005'
p2162
aS'Sept'
p2163
aS'10'
p2164
asS'Phil Sandifer'
p2165
(lp2166
S'2004'
p2167
aS'July'
p2168
aS'31'
p2169
asS'JonMoore'
p2170
(lp2171
S'2004'
p2172
aS'Dec'
p2173
aS'12'
p2174
asS'Urhixidur'
p2175
(lp2176
S'2004'
p2177
aS'Dec'
p2178
aS'31'
p2179
asS'Jersey Devil'
p2180
(lp2181
S'2007'
p2182
aS'Feb'
p2183
ag229
asS'Shii'
p2184
(lp2185
S'2006'
p2186
aS'Jan'
p2187
aS'30'
p2188
asS'Anthony.bradbury'
p2189
(lp2190
S'2007'
p2191
aS'March'
p2192
aS'31'
p2193
asS'PDH'
p2194
(lp2195
S'2005'
p2196
aS'Apr'
p2197
aS'14'
p2198
asS'Oleg Alexandrov'
p2199
(lp2200
S'2005'
p2201
aS'Sept'
p2202
aS'25'
p2203
asS'Awolf002'
p2204
(lp2205
S'2005'
p2206
aS'Dec'
p2207
ag15
asS'Mailer diablo'
p2208
(lp2209
S'2005'
p2210
aS'March'
p2211
aS'31'
p2212
asS'CLW'
p2213
(lp2214
S'2005'
p2215
aS'Dec'
p2216
aS'14'
p2217
asS'Smurrayinchester'
p2218
(lp2219
S'2006'
p2220
aS'March'
p2221
aS'19'
p2222
asS'Dieter Simon'
p2223
(lp2224
S'2003'
p2225
aS'Dec'
p2226
ag102
asS'Mallanox'
p2227
(lp2228
S'2007'
p2229
aS'April'
p2230
aS'28'
p2231
asS'Yandman'
p2232
(lp2233
S'2007'
p2234
aS'Jan'
p2235
aS'30'
p2236
asS'Cnwb'
p2237
(lp2238
S'2005'
p2239
aS'Dec'
p2240
ag544
asS'Mike Rosoft'
p2241
(lp2242
S'2005'
p2243
aS'Dec'
p2244
aS'30'
p2245
asS'KF'
p2246
(lp2247
S'2004'
p2248
aS'Nov'
p2249
aS'23'
p2250
asS'EVula'
p2251
(lp2252
S'2006'
p2253
aS'Nov'
p2254
ag34
asS'Andrwsc'
p2255
(lp2256
S'2007'
p2257
aS'Feb'
p2258
aS'28'
p2259
asS'Linuxbeak'
p2260
(lp2261
S'2005'
p2262
aS'June'
p2263
ag5
asS'Andrew Yong'
p2264
(lp2265
S'2004'
p2266
aS'May'
p2267
aS'15'
p2268
asS'Gogo Dodo'
p2269
(lp2270
S'2006'
p2271
aS'Dec'
p2272
ag229
asS'Cyrius'
p2273
(lp2274
S'2004'
p2275
aS'May'
p2276
aS'10'
p2277
asS'Bryan Derksen'
p2278
(lp2279
S'2002'
p2280
ag399
ag102
asS'Antandrus'
p2281
(lp2282
S'2005'
p2283
aS'Apr'
p2284
ag15
asS'Zoicon5'
p2285
(lp2286
S'2004'
p2287
aS'Nov'
p2288
aS'24'
p2289
asS'Tariqabjotu'
p2290
(lp2291
S'2006'
p2292
aS'Nov'
p2293
aS'17'
p2294
asS'Bratsche'
p2295
(lp2296
S'2005'
p2297
aS'July'
p2298
ag102
asS'Jiang'
p2299
(lp2300
S'2003'
p2301
aS'July'
p2302
ag102
asS'Mike Selinker'
p2303
(lp2304
S'2006'
p2305
aS'Nov'
p2306
aS'18'
p2307
asS'Lethe'
p2308
(lp2309
S'2006'
p2310
aS'Jan'
p2311
aS'31'
p2312
asS'The Land'
p2313
(lp2314
S'2005'
p2315
aS'Dec'
p2316
aS'14'
p2317
asS'Pepsidrinka'
p2318
(lp2319
S'2006'
p2320
aS'March'
p2321
aS'26'
p2322
asS'BorgHunter'
p2323
(lp2324
S'2005'
p2325
aS'Dec'
p2326
aS'21'
p2327
asS'DaGizza'
p2328
(lp2329
S'2006'
p2330
aS'March'
p2331
aS'28'
p2332
asS'BrendelSignature'
p2333
(lp2334
S'2007'
p2335
aS'May'
p2336
aS'19'
p2337
asS'Qaz'
p2338
(lp2339
S'2005'
p2340
aS'Oct'
p2341
aS'16'
p2342
asS'Fang Aili'
p2343
(lp2344
S'2006'
p2345
aS'Apr'
p2346
aS'10'
p2347
asS'Sarge Baldy'
p2348
(lp2349
S'2006'
p2350
aS'Jan'
p2351
ag169
asS'Eyrian'
p2352
(lp2353
S'2007'
p2354
aS'May'
p2355
ag15
asS'Chaser'
p2356
(lp2357
S'2006'
p2358
aS'Dec'
p2359
aS'14'
p2360
asS'Saxifrage'
p2361
(lp2362
S'2006'
p2363
aS'Nov'
p2364
ag544
asS'Ohnoitsjamie'
p2365
(lp2366
S'2006'
p2367
aS'June'
p2368
aS'29'
p2369
asS'Punkmorten'
p2370
(lp2371
S'2006'
p2372
aS'Jan'
p2373
aS'10'
p2374
asS'Jcw69'
p2375
(lp2376
S'2005'
p2377
aS'Oct'
p2378
aS'21'
p2379
asS'Ezeu'
p2380
(lp2381
S'2006'
p2382
aS'Apr'
p2383
aS'28'
p2384
asS'Vegaswikian'
p2385
(lp2386
S'2006'
p2387
aS'Jan'
p2388
aS'29'
p2389
asS'Knowledge Seeker'
p2390
(lp2391
S'2005'
p2392
aS'March'
p2393
aS'15'
p2394
asS'Rune.welsh'
p2395
(lp2396
S'2006'
p2397
aS'March'
p2398
aS'23'
p2399
asS'Schneelocke'
p2400
(lp2401
S'2003'
p2402
aS'Aug'
p2403
ag102
asS'Srikeit'
p2404
(lp2405
S'2006'
p2406
aS'July'
p2407
aS'17'
p2408
asS'Mushroom'
p2409
(lp2410
S'2005'
p2411
aS'Dec'
p2412
ag229
asS'The Cunctator'
p2413
(lp2414
S'2002'
p2415
ag399
ag102
asS'Christopher Parham'
p2416
(lp2417
S'2007'
p2418
aS'May'
p2419
aS'29'
p2420
asS'Shell Kinney'
p2421
(lp2422
S'2005'
p2423
aS'Nov'
p2424
aS'22'
p2425
asS'TheProject'
p2426
(lp2427
S'2006'
p2428
aS'June'
p2429
aS'30'
p2430
asS'Extraordinary Machine'
p2431
(lp2432
S'2006'
p2433
aS'June'
p2434
aS'29'
p2435
asS'Docu'
p2436
(lp2437
S'2003'
p2438
aS'Dec'
p2439
ag102
asS'Cecropia'
p2440
(lp2441
S'2004'
p2442
aS'Apr'
p2443
aS'13'
p2444
asS'WAvegetarian'
p2445
(lp2446
S'2006'
p2447
aS'July'
p2448
aS'30'
p2449
asS'Patrick'
p2450
(lp2451
S'2003'
p2452
aS'Sept'
p2453
ag102
asS'Ortolan88'
p2454
(lp2455
S'2004'
p2456
aS'Nov'
p2457
aS'15'
p2458
asS'Zscout370'
p2459
(lp2460
S'2005'
p2461
aS'Aug'
p2462
aS'11'
p2463
asS'J.smith'
p2464
(lp2465
S'2006'
p2466
aS'Dec'
p2467
aS'12'
p2468
asS'JeremyA'
p2469
(lp2470
S'2005'
p2471
aS'June'
p2472
aS'16'
p2473
asS'Joshbuddy'
p2474
(lp2475
S'2006'
p2476
aS'June'
p2477
aS'26'
p2478
asS'Tristanb'
p2479
(lp2480
S'2003'
p2481
aS'Nov'
p2482
ag102
asS'Joyous!'
p2483
(lp2484
S'2004'
p2485
aS'Nov'
p2486
aS'15'
p2487
asS'Visviva'
p2488
(lp2489
S'2007'
p2490
aS'Jan'
p2491
aS'11'
p2492
asS'After Midnight'
p2493
(lp2494
S'2007'
p2495
aS'May'
p2496
aS'15'
p2497
asS'Rd232'
p2498
(lp2499
S'2005'
p2500
aS'Oct'
p2501
aS'14'
p2502
asS'Jayjg'
p2503
(lp2504
S'2004'
p2505
aS'Sept'
p2506
aS'13'
p2507
asS'Exploding Boy'
p2508
(lp2509
S'2004'
p2510
aS'Apr'
p2511
aS'11'
p2512
asS'Bumm13'
p2513
(lp2514
S'2005'
p2515
aS'March'
p2516
aS'25'
p2517
asS'Tangotango'
p2518
(lp2519
S'2006'
p2520
aS'June'
p2521
aS'26'
p2522
asS'Journalist'
p2523
(lp2524
S'2005'
p2525
aS'Oct'
p2526
ag229
asS'Cutler'
p2527
(lp2528
S'2004'
p2529
aS'July'
p2530
ag15
asS'John Kenney'
p2531
(lp2532
S'2003'
p2533
aS'Sept'
p2534
ag102
asS'Tim Ivorson'
p2535
(lp2536
S'2004'
p2537
aS'Dec'
p2538
aS'31'
p2539
asS'The Epopt'
p2540
(lp2541
S'2002'
p2542
ag399
ag102
asS'EurekaLott'
p2543
(lp2544
S'2006'
p2545
aS'Jan'
p2546
aS'22'
p2547
asS'Michael Hardy'
p2548
(lp2549
S'2003'
p2550
aS'Dec'
p2551
ag102
asS'Ffirehorse'
p2552
(lp2553
S'2004'
p2554
aS'Oct'
p2555
aS'24'
p2556
asS'Karada'
p2557
(lp2558
S'2004'
p2559
aS'Nov'
p2560
aS'16'
p2561
asS'Natalya'
p2562
(lp2563
S'2006'
p2564
aS'June'
p2565
ag229
asS'Refdoc'
p2566
(lp2567
S'2005'
p2568
aS'Feb'
p2569
aS'11'
p2570
asS'GTBacchus'
p2571
(lp2572
S'2005'
p2573
aS'Dec'
p2574
aS'21'
p2575
asS'Tango'
p2576
(lp2577
S'2006'
p2578
aS'Nov'
p2579
aS'19'
p2580
asS'Commander Keane'
p2581
(lp2582
S'2005'
p2583
aS'Nov'
p2584
ag126
asS'Enochlau'
p2585
(lp2586
S'2005'
p2587
aS'Dec'
p2588
ag229
asS'Kaldari'
p2589
(lp2590
S'2005'
p2591
aS'Aug'
p2592
aS'10'
p2593
asS'Orioane'
p2594
(lp2595
S'2005'
p2596
aS'Dec'
p2597
aS'13'
p2598
asS'Nihiltres'
p2599
(lp2600
S'2007'
p2601
aS'May'
p2602
aS'21'
p2603
asS'James086'
p2604
(lp2605
S'2007'
p2606
aS'Feb'
p2607
aS'25'
p2608
asS'Stevenj'
p2609
(lp2610
S'2004'
p2611
aS'Apr'
p2612
aS'18'
p2613
asS'TheCoffee'
p2614
(lp2615
S'2005'
p2616
aS'Aug'
p2617
aS'24'
p2618
asS'CSTAR'
p2619
(lp2620
S'2004'
p2621
aS'Nov'
p2622
aS'23'
p2623
asS'Alex Bakharev'
p2624
(lp2625
S'2006'
p2626
aS'Feb'
p2627
aS'23'
p2628
asS'Ellsworth'
p2629
(lp2630
S'2005'
p2631
aS'Apr'
p2632
aS'18'
p2633
asS'Tonywalton'
p2634
(lp2635
S'2006'
p2636
aS'Dec'
p2637
aS'15'
p2638
asS'Roozbeh'
p2639
(lp2640
S'2004'
p2641
aS'Apr'
p2642
aS'20'
p2643
asS'Amalas'
p2644
(lp2645
S'2006'
p2646
aS'Dec'
p2647
ag5
asS'Mets501'
p2648
(lp2649
S'2006'
p2650
aS'Aug'
p2651
aS'13'
p2652
asS'Poor Yorick'
p2653
(lp2654
S'2003'
p2655
aS'June'
p2656
ag102
asS'Bobak'
p2657
(lp2658
S'2007'
p2659
aS'May'
p2660
aS'23'
p2661
asS'Ryan Delaney'
p2662
(lp2663
S'2005'
p2664
aS'Aug'
p2665
aS'10'
p2666
asS'Picaroon9288'
p2667
(lp2668
S'2007'
p2669
aS'Feb'
p2670
ag34
asS'Stephen'
p2671
(lp2672
S'2007'
p2673
aS'May'
p2674
ag332
asS'Garion96'
p2675
(lp2676
S'2007'
p2677
aS'Feb'
p2678
aS'13'
p2679
asS'Oldelpaso'
p2680
(lp2681
S'2007'
p2682
aS'March'
p2683
aS'24'
p2684
asS'Tr\xc3\xb6del'
p2685
(lp2686
S'2006'
p2687
aS'Oct'
p2688
aS'20'
p2689
asS'Ramallite'
p2690
(lp2691
S'2005'
p2692
aS'Nov'
p2693
ag15
asS'Runcorn'
p2694
(lp2695
S'2006'
p2696
aS'Aug'
p2697
aS'31'
p2698
asS'MarkGallagher'
p2699
(lp2700
S'2005'
p2701
aS'Nov'
p2702
aS'25'
p2703
asS'Bhadani'
p2704
(lp2705
S'2005'
p2706
aS'Sept'
p2707
aS'18'
p2708
asS'Cyp'
p2709
(lp2710
S'2003'
p2711
aS'June'
p2712
ag102
asS'Seglea'
p2713
(lp2714
S'2004'
p2715
aS'Feb'
p2716
ag5
asS'Aksi great'
p2717
(lp2718
S'2006'
p2719
aS'Oct'
p2720
aS'24'
p2721
asS'Paul A'
p2722
(lp2723
S'2003'
p2724
aS'Sept'
p2725
ag102
asS'Dwheeler'
p2726
(lp2727
S'2003'
p2728
aS'July'
p2729
ag102
asS'Pharos'
p2730
(lp2731
S'2005'
p2732
aS'March'
p2733
aS'19'
p2734
asS'TenOfAllTrades'
p2735
(lp2736
S'2005'
p2737
aS'June'
p2738
aS'23'
p2739
asS'Golbez'
p2740
(lp2741
S'2004'
p2742
aS'Sept'
p2743
aS'29'
p2744
asS'Sandstein'
p2745
(lp2746
S'2006'
p2747
aS'Nov'
p2748
aS'30'
p2749
asS'BD2412'
p2750
(lp2751
S'2005'
p2752
aS'Dec'
p2753
ag15
asS'Ww'
p2754
(lp2755
S'2004'
p2756
aS'Apr'
p2757
aS'20'
p2758
asS'Deiz'
p2759
(lp2760
S'2006'
p2761
aS'May'
p2762
aS'17'
p2763
asS'Alteripse'
p2764
(lp2765
S'2005'
p2766
aS'Jan'
p2767
aS'24'
p2768
asS'R3m0t'
p2769
(lp2770
S'2005'
p2771
aS'July'
p2772
ag102
asS'Jmabel'
p2773
(lp2774
S'2004'
p2775
aS'May'
p2776
aS'11'
p2777
asS'Furrykef'
p2778
(lp2779
S'2005'
p2780
aS'Apr'
p2781
aS'26'
p2782
asS'NicholasTurnbull'
p2783
(lp2784
S'2005'
p2785
aS'Oct'
p2786
ag34
asS'AlisonW'
p2787
(lp2788
S'2006'
p2789
aS'May'
p2790
aS'31'
p2791
asS'Dan100'
p2792
(lp2793
S'2005'
p2794
aS'Aug'
p2795
ag5
asS'Opabinia regalis'
p2796
(lp2797
S'2006'
p2798
aS'Nov'
p2799
aS'16'
p2800
asS'Allen3'
p2801
(lp2802
S'2005'
p2803
aS'July'
p2804
ag102
asS'Jinian'
p2805
(lp2806
S'2005'
p2807
aS'Apr'
p2808
aS'13'
p2809
asS'Brighterorange'
p2810
(lp2811
S'2005'
p2812
aS'Oct'
p2813
aS'14'
p2814
asS'Ricky81682'
p2815
(lp2816
S'2005'
p2817
aS'Dec'
p2818
aS'30'
p2819
asS'BrokenSegue'
p2820
(lp2821
S'2005'
p2822
aS'Jan'
p2823
aS'10'
p2824
asS'Cyan'
p2825
(lp2826
S'2003'
p2827
aS'Aug'
p2828
ag102
asS'Wile E. Heresiarch'
p2829
(lp2830
S'2004'
p2831
aS'May'
p2832
aS'21'
p2833
asS'Roadrunner'
p2834
(lp2835
S'2004'
p2836
aS'Feb'
p2837
ag5
asS'NawlinWiki'
p2838
(lp2839
S'2006'
p2840
aS'Aug'
p2841
aS'26'
p2842
asS'KillerChihuahua'
p2843
(lp2844
S'2006'
p2845
aS'Jan'
p2846
aS'14'
p2847
asS'Adam Bishop'
p2848
(lp2849
S'2003'
p2850
aS'Sept'
p2851
aS'20'
p2852
asS'Noldoaran'
p2853
(lp2854
S'2004'
p2855
aS'Feb'
p2856
aS'12'
p2857
asS'Darthgriz98'
p2858
(lp2859
S'2007'
p2860
aS'April'
p2861
ag169
asS'Mathwiz2020'
p2862
(lp2863
S'2006'
p2864
aS'Jan'
p2865
aS'12'
p2866
asS'Matilda'
p2867
(lp2868
S'2006'
p2869
aS'March'
p2870
ag544
asS'Flowerparty'
p2871
(lp2872
S'2006'
p2873
aS'March'
p2874
aS'11'
p2875
asS'Thunderboltz'
p2876
(lp2877
S'2006'
p2878
aS'Oct'
p2879
aS'21'
p2880
asS'Sam Vimes'
p2881
(lp2882
S'2006'
p2883
aS'June'
p2884
aS'20'
p2885
asS'Quadell'
p2886
(lp2887
S'2004'
p2888
aS'July'
p2889
aS'16'
p2890
asS'Kukini'
p2891
(lp2892
S'2006'
p2893
aS'June'
p2894
ag169
asS'Rhobite'
p2895
(lp2896
S'2004'
p2897
aS'Oct'
p2898
aS'23'
p2899
asS'Mo0'
p2900
(lp2901
S'2005'
p2902
aS'Dec'
p2903
aS'17'
p2904
asS'Robert Merkel'
p2905
(lp2906
S'2002'
p2907
ag399
ag102
asS'Chris 73'
p2908
(lp2909
S'2004'
p2910
aS'May'
p2911
ag15
asS'Cuchullain'
p2912
(lp2913
S'2007'
p2914
aS'Feb'
p2915
aS'14'
p2916
asS'LouI'
p2917
(lp2918
S'2004'
p2919
aS'Jan'
p2920
aS'18'
p2921
asS'OlEnglish'
p2922
(lp2923
S'2009'
p2924
aS'Sept'
p2925
aS'26'
p2926
asS'BigHaz'
p2927
(lp2928
S'2007'
p2929
aS'Feb'
p2930
aS'28'
p2931
asS'Psy guy'
p2932
(lp2933
S'2005'
p2934
aS'Nov'
p2935
aS'12'
p2936
asS'Zoney'
p2937
(lp2938
S'2004'
p2939
aS'Sept'
p2940
aS'21'
p2941
asS'FayssalF'
p2942
(lp2943
S'2005'
p2944
aS'Dec'
p2945
aS'24'
p2946
asS'Glen'
p2947
(lp2948
S'2006'
p2949
aS'Aug'
p2950
aS'23'
p2951
asS'Rklawton'
p2952
(lp2953
S'2007'
p2954
aS'March'
p2955
aS'13'
p2956
asS'Renesis'
p2957
(lp2958
S'2006'
p2959
aS'Nov'
p2960
aS'28'
p2961
asS'Zoe'
p2962
(lp2963
S'2003'
p2964
aS'Feb'
p2965
ag102
asS'NoSeptember'
p2966
(lp2967
S'2006'
p2968
aS'Jan'
p2969
aS'22'
p2970
asS'Theresa knott'
p2971
(lp2972
S'2003'
p2973
aS'June'
p2974
ag102
asS'Yomangani'
p2975
(lp2976
S'2006'
p2977
aS'Oct'
p2978
aS'12'
p2979
asS'Akradecki'
p2980
(lp2981
S'2007'
p2982
aS'May'
p2983
aS'21'
p2984
asS'Rdsmith4'
p2985
(lp2986
S'2004'
p2987
aS'Oct'
p2988
ag229
asS'Slowking Man'
p2989
(lp2990
S'2004'
p2991
aS'Oct'
p2992
aS'12'
p2993
asS'Infrogmation'
p2994
(lp2995
S'2003'
p2996
aS'Feb'
p2997
ag102
asS'AntonioMartin'
p2998
(lp2999
S'2003'
p3000
aS'July'
p3001
ag102
asS'Electionworld'
p3002
(lp3003
S'2005'
p3004
aS'Apr'
p3005
aS'21'
p3006
asS'Pagrashtak'
p3007
(lp3008
S'2006'
p3009
aS'Apr'
p3010
aS'18'
p3011
asS'Nickshanks'
p3012
(lp3013
S'2005'
p3014
aS'Oct'
p3015
aS'16'
p3016
asS'W.marsh'
p3017
(lp3018
S'2006'
p3019
aS'Sept'
p3020
aS'26'
p3021
asS'Mindspillage'
p3022
(lp3023
S'2005'
p3024
aS'Apr'
p3025
aS'18'
p3026
asS'Cholmes75'
p3027
(lp3028
S'2006'
p3029
aS'Nov'
p3030
aS'11'
p3031
asS'Triddle'
p3032
(lp3033
S'2005'
p3034
aS'July'
p3035
aS'17'
p3036
asS'Xdamr'
p3037
(lp3038
S'2007'
p3039
aS'April'
p3040
ag229
asS'Maury Markowitz'
p3041
(lp3042
S'2004'
p3043
aS'Nov'
p3044
aS'22'
p3045
asS'Interiot'
p3046
(lp3047
S'2006'
p3048
aS'Jan'
p3049
aS'21'
p3050
asS'C12H22O11'
p3051
(lp3052
S'2005'
p3053
aS'Sept'
p3054
ag15
asS'Youngamerican'
p3055
(lp3056
S'2006'
p3057
aS'Nov'
p3058
ag332
asS'CesarB'
p3059
(lp3060
S'2005'
p3061
aS'June'
p3062
ag229
asS'ProhibitOnions'
p3063
(lp3064
S'2006'
p3065
aS'Apr'
p3066
aS'10'
p3067
asS'Nickptar'
p3068
(lp3069
S'2005'
p3070
aS'Sept'
p3071
aS'11'
p3072
asS'Perceval'
p3073
(lp3074
S'2005'
p3075
aS'Oct'
p3076
aS'21'
p3077
asS'The JPS'
p3078
(lp3079
S'2006'
p3080
aS'May'
p3081
ag102
asS'Ronline'
p3082
(lp3083
S'2005'
p3084
aS'Dec'
p3085
ag332
asS'Viviano'
p3086
(lp3087
S'2007'
p3088
aS'March'
p3089
ag544
asS'Jimfbleak'
p3090
(lp3091
S'2003'
p3092
aS'May'
p3093
ag102
asS'Toby Bartels'
p3094
(lp3095
S'2002'
p3096
aS'July'
p3097
ag102
asS'SlimVirgin'
p3098
(lp3099
S'2005'
p3100
aS'March'
p3101
aS'23'
p3102
asS'Kinu'
p3103
(lp3104
S'2007'
p3105
aS'Jan'
p3106
ag169
asS'TSO1D'
p3107
(lp3108
S'2007'
p3109
aS'Jan'
p3110
aS'18'
p3111
asS'Renata3'
p3112
(lp3113
S'2006'
p3114
aS'Aug'
p3115
aS'16'
p3116
asS'Cactus.man'
p3117
(lp3118
S'2006'
p3119
aS'March'
p3120
aS'16'
p3121
asS'Paul August'
p3122
(lp3123
S'2005'
p3124
aS'May'
p3125
aS'31'
p3126
asS'Johntex'
p3127
(lp3128
S'2005'
p3129
aS'Oct'
p3130
aS'26'
p3131
asS'Rbrwr'
p3132
(lp3133
S'2004'
p3134
aS'May'
p3135
ag5
asS'Jonathunder'
p3136
(lp3137
S'2006'
p3138
aS'Jan'
p3139
ag15
asS'Neil'
p3140
(lp3141
S'2006'
p3142
aS'Apr'
p3143
ag126
asS'Cleared as filed'
p3144
(lp3145
S'2005'
p3146
aS'Nov'
p3147
aS'19'
p3148
asS'Canadian-Bacon'
p3149
(lp3150
S'2006'
p3151
aS'Dec'
p3152
aS'23'
p3153
asS'JLaTondre'
p3154
(lp3155
S'2006'
p3156
aS'July'
p3157
aS'11'
p3158
asS'FreplySpang'
p3159
(lp3160
S'2005'
p3161
aS'May'
p3162
aS'31'
p3163
asS'Gerald Farinas'
p3164
(lp3165
S'2004'
p3166
aS'Sept'
p3167
aS'19'
p3168
asS'Geniac'
p3169
(lp3170
S'2007'
p3171
aS'Feb'
p3172
ag169
asS'Goldom'
p3173
(lp3174
S'2006'
p3175
aS'Aug'
p3176
aS'12'
p3177
asS'Wikiacc'
p3178
(lp3179
S'2005'
p3180
aS'Oct'
p3181
aS'18'
p3182
asS'Physicq210'
p3183
(lp3184
S'2006'
p3185
aS'Oct'
p3186
aS'17'
p3187
asS'Superm401'
p3188
(lp3189
S'2006'
p3190
aS'Feb'
p3191
ag15
asS'MZMcBride'
p3192
(lp3193
S'2007'
p3194
aS'May'
p3195
aS'13'
p3196
asS'Nakon'
p3197
(lp3198
S'2006'
p3199
aS'March'
p3200
aS'12'
p3201
asS'Johann Wolfgang'
p3202
(lp3203
S'2005'
p3204
aS'Nov'
p3205
aS'13'
p3206
asS'PinchasC'
p3207
(lp3208
S'2005'
p3209
aS'Dec'
p3210
aS'22'
p3211
asS'Grm wnr'
p3212
(lp3213
S'2005'
p3214
aS'June'
p3215
aS'18'
p3216
asS'Kingturtle'
p3217
(lp3218
S'2003'
p3219
aS'May'
p3220
ag102
asS'Deltabeignet'
p3221
(lp3222
S'2005'
p3223
aS'Dec'
p3224
aS'21'
p3225
asS'ABCD'
p3226
(lp3227
S'2005'
p3228
aS'Apr'
p3229
ag229
asS'BozMo'
p3230
(lp3231
S'2007'
p3232
aS'Jan'
p3233
aS'22'
p3234
asS'No Guru'
p3235
(lp3236
S'2006'
p3237
aS'Apr'
p3238
aS'18'
p3239
asS'Grendelkhan'
p3240
(lp3241
S'2006'
p3242
aS'July'
p3243
aS'23'
p3244
asS'Akhilleus'
p3245
(lp3246
S'2007'
p3247
aS'April'
p3248
ag544
asS'Vsmith'
p3249
(lp3250
S'2005'
p3251
aS'July'
p3252
ag5
asS'Hex'
p3253
(lp3254
S'2007'
p3255
aS'September'
p3256
aS'20'
p3257
asS'Stan Shebs'
p3258
(lp3259
S'2003'
p3260
aS'Oct'
p3261
ag102
asS'Craigy144'
p3262
(lp3263
S'2005'
p3264
aS'July'
p3265
ag544
asS'Ben W Bell'
p3266
(lp3267
S'2006'
p3268
aS'June'
p3269
ag34
asS'Wernher'
p3270
(lp3271
S'2004'
p3272
aS'Dec'
p3273
ag15
asS'Nishkid64'
p3274
(lp3275
S'2006'
p3276
aS'Sept'
p3277
aS'26'
p3278
asS'Shyam'
p3279
(lp3280
S'2006'
p3281
aS'Nov'
p3282
aS'10'
p3283
asS'HighInBC'
p3284
(lp3285
S'2006'
p3286
aS'Nov'
p3287
aS'28'
p3288
asS'Night Gyr'
p3289
(lp3290
S'2007'
p3291
aS'Jan'
p3292
aS'16'
p3293
asS'Kzollman'
p3294
(lp3295
S'2005'
p3296
aS'Oct'
p3297
aS'20'
p3298
asS'Jesse Viviano'
p3299
(lp3300
S'2007'
p3301
aS'March'
p3302
ag544
asS'Mysekurity'
p3303
(lp3304
S'2005'
p3305
aS'Nov'
p3306
ag5
asS'Dysprosia'
p3307
(lp3308
S'2003'
p3309
aS'Sept'
p3310
ag102
asS'BigrTex'
p3311
(lp3312
S'2007'
p3313
aS'May'
p3314
aS'12'
p3315
asS'Edgar181'
p3316
(lp3317
S'2006'
p3318
aS'July'
p3319
aS'18'
p3320
asS'Khaosworks'
p3321
(lp3322
S'2005'
p3323
aS'Apr'
p3324
aS'27'
p3325
asS'Richardcavell'
p3326
(lp3327
S'2006'
p3328
aS'June'
p3329
ag5
asS'JzG'
p3330
(lp3331
S'2006'
p3332
aS'Jan'
p3333
aS'17'
p3334
asS'Nunh-huh'
p3335
(lp3336
S'2004'
p3337
aS'May'
p3338
aS'23'
p3339
asS'Garzo'
p3340
(lp3341
S'2005'
p3342
aS'Oct'
p3343
aS'21'
p3344
asS'Lexor'
p3345
(lp3346
S'2004'
p3347
aS'March'
p3348
aS'12'
p3349
asS'Trialsanderrors'
p3350
(lp3351
S'2006'
p3352
aS'Nov'
p3353
aS'11'
p3354
asS'GRBerry'
p3355
(lp3356
S'2006'
p3357
aS'Dec'
p3358
aS'30'
p3359
asS'Fred Chess'
p3360
(lp3361
S'2006'
p3362
aS'Feb'
p3363
aS'11'
p3364
asS'MichaelBillington'
p3365
(lp3366
S'2007'
p3367
aS'March'
p3368
aS'24'
p3369
asS'Ilmari Karonen'
p3370
(lp3371
S'2006'
p3372
aS'Jan'
p3373
aS'30'
p3374
asS'Spangineer'
p3375
(lp3376
S'2005'
p3377
aS'July'
p3378
ag544
asS'TShilo12'
p3379
(lp3380
S'2005'
p3381
aS'Dec'
p3382
aS'12'
p3383
asS'Grunt'
p3384
(lp3385
S'2004'
p3386
aS'Aug'
p3387
aS'28'
p3388
asS'Yannismarou'
p3389
(lp3390
S'2007'
p3391
aS'Jan'
p3392
aS'22'
p3393
asS'ChrisO'
p3394
(lp3395
S'2004'
p3396
aS'Feb'
p3397
aS'24'
p3398
asS'Flockmeal'
p3399
(lp3400
S'2004'
p3401
aS'March'
p3402
aS'17'
p3403
asS'Wouterstomp'
p3404
(lp3405
S'2006'
p3406
aS'Jan'
p3407
aS'23'
p3408
asS'Fawcett5'
p3409
(lp3410
S'2005'
p3411
aS'June'
p3412
ag5
asS'Ragib'
p3413
(lp3414
S'2005'
p3415
aS'Aug'
p3416
ag5
asS'Miborovsky'
p3417
(lp3418
S'2005'
p3419
aS'Nov'
p3420
aS'25'
p3421
asS'Dmn'
p3422
(lp3423
S'2004'
p3424
aS'Nov'
p3425
aS'26'
p3426
asS'23skidoo'
p3427
(lp3428
S'2005'
p3429
aS'Oct'
p3430
ag34
asS'CyborgTosser'
p3431
(lp3432
S'2004'
p3433
aS'Oct'
p3434
aS'23'
p3435
asS'Angela'
p3436
(lp3437
S'2003'
p3438
aS'June'
p3439
ag102
asS'Staxringold'
p3440
(lp3441
S'2006'
p3442
aS'June'
p3443
ag5
asS'Delirium'
p3444
(lp3445
S'2003'
p3446
aS'July'
p3447
ag102
asS'Geogre'
p3448
(lp3449
S'2004'
p3450
aS'Aug'
p3451
aS'13'
p3452
asS'Wikibofh'
p3453
(lp3454
S'2005'
p3455
aS'Oct'
p3456
aS'14'
p3457
asS'Khukri'
p3458
(lp3459
S'2007'
p3460
aS'May'
p3461
aS'18'
p3462
asS'Sherool'
p3463
(lp3464
S'2005'
p3465
aS'Nov'
p3466
aS'19'
p3467
asS'Philip Baird Shearer'
p3468
(lp3469
S'2006'
p3470
aS'June'
p3471
ag5
asS'Isotope23'
p3472
(lp3473
S'2007'
p3474
aS'Jan'
p3475
aS'17'
p3476
asS'Dina'
p3477
(lp3478
S'2006'
p3479
aS'Dec'
p3480
aS'18'
p3481
asS'Dino'
p3482
(lp3483
S'2004'
p3484
aS'Dec'
p3485
ag229
asS'Raul654'
p3486
(lp3487
S'2003'
p3488
aS'Dec'
p3489
ag102
asS'Adambro'
p3490
(lp3491
S'2007'
p3492
aS'April'
p3493
aS'30'
p3494
asS'Vary'
p3495
(lp3496
S'2006'
p3497
aS'March'
p3498
aS'12'
p3499
asS'Pathoschild'
p3500
(lp3501
S'2005'
p3502
aS'Dec'
p3503
aS'11'
p3504
asS'Cburnett'
p3505
(lp3506
S'2005'
p3507
aS'May'
p3508
ag102
asS'Arjun01'
p3509
(lp3510
S'2007'
p3511
aS'Feb'
p3512
ag169
asS'Splash'
p3513
(lp3514
S'2005'
p3515
aS'Sept'
p3516
ag169
asS'Carnildo'
p3517
(lp3518
S'2006'
p3519
aS'Sept'
p3520
ag544
asS'Lowellian'
p3521
(lp3522
S'2004'
p3523
aS'May'
p3524
aS'25'
p3525
asS'Hemlock Martinis'
p3526
(lp3527
S'2007'
p3528
aS'April'
p3529
aS'13'
p3530
asS'Silsor'
p3531
(lp3532
S'2006'
p3533
aS'May'
p3534
ag126
asS'Andrevan'
p3535
(lp3536
S'2004'
p3537
aS'Sept'
p3538
aS'18'
p3539
asS'Lexi Marie'
p3540
(lp3541
S'2005'
p3542
aS'Sept'
p3543
ag5
asS'Alvestrand'
p3544
(lp3545
S'2007'
p3546
aS'May'
p3547
aS'21'
p3548
asS'Neutrality'
p3549
(lp3550
S'2004'
p3551
aS'Oct'
p3552
aS'13'
p3553
asS'RobLa'
p3554
(lp3555
S'2004'
p3556
aS'Feb'
p3557
aS'12'
p3558
asS'Phil Boswell'
p3559
(lp3560
S'2005'
p3561
aS'Aug'
p3562
aS'23'
p3563
asS'Prodego'
p3564
(lp3565
S'2006'
p3566
aS'Apr'
p3567
ag332
asS'Davidruben'
p3568
(lp3569
S'2006'
p3570
aS'Dec'
p3571
aS'13'
p3572
asS'Teke'
p3573
(lp3574
S'2006'
p3575
aS'Aug'
p3576
aS'28'
p3577
asS'Nohat'
p3578
(lp3579
S'2004'
p3580
aS'Apr'
p3581
aS'22'
p3582
asS'Alphachimp'
p3583
(lp3584
S'2006'
p3585
aS'Aug'
p3586
aS'18'
p3587
asS'Agathoclea'
p3588
(lp3589
S'2006'
p3590
aS'Dec'
p3591
aS'25'
p3592
asS'Davodd'
p3593
(lp3594
S'2004'
p3595
aS'June'
p3596
aS'28'
p3597
asS'Tompagenet'
p3598
(lp3599
S'2003'
p3600
aS'Aug'
p3601
ag102
asS'CJCurrie'
p3602
(lp3603
S'2004'
p3604
aS'Sept'
p3605
aS'22'
p3606
asS'TigerShark'
p3607
(lp3608
S'2006'
p3609
aS'Apr'
p3610
ag332
asS'Stifle'
p3611
(lp3612
S'2006'
p3613
aS'March'
p3614
ag34
asS'AndonicO'
p3615
(lp3616
S'2007'
p3617
aS'April'
p3618
aS'28'
p3619
asS'PS2pcGAMER'
p3620
(lp3621
S'2006'
p3622
aS'Apr'
p3623
ag15
asS'Denelson83'
p3624
(lp3625
S'2005'
p3626
aS'Oct'
p3627
aS'14'
p3628
asS'Jengod'
p3629
(lp3630
S'2004'
p3631
aS'Feb'
p3632
aS'20'
p3633
asS'Sean William'
p3634
(lp3635
S'2007'
p3636
aS'April'
p3637
ag544
asS'Encephalon'
p3638
(lp3639
S'2006'
p3640
aS'March'
p3641
aS'27'
p3642
asS'Sheldon Rampton'
p3643
(lp3644
S'2003'
p3645
aS'March'
p3646
ag102
asS'Extreme Unction'
p3647
(lp3648
S'2005'
p3649
aS'Dec'
p3650
ag15
asS'Cprompt'
p3651
(lp3652
S'2003'
p3653
aS'Apr'
p3654
ag102
asS'Solipsist'
p3655
(lp3656
S'2004'
p3657
aS'Dec'
p3658
aS'14'
p3659
asS'Brendanconway'
p3660
(lp3661
S'2005'
p3662
aS'Dec'
p3663
aS'13'
p3664
asS'MykReeve'
p3665
(lp3666
S'2004'
p3667
aS'May'
p3668
ag15
asS'Steinsky'
p3669
(lp3670
S'2006'
p3671
aS'Jan'
p3672
aS'31'
p3673
asS'Bucketsofg'
p3674
(lp3675
S'2006'
p3676
aS'May'
p3677
aS'21'
p3678
asS'Luigi30'
p3679
(lp3680
S'2005'
p3681
aS'Dec'
p3682
ag169
asS'Ausir'
p3683
(lp3684
S'2005'
p3685
aS'May'
p3686
aS'14'
p3687
asS'Mike 7'
p3688
(lp3689
S'2006'
p3690
aS'Sept'
p3691
aS'17'
p3692
asS'Waltpohl'
p3693
(lp3694
S'2005'
p3695
aS'Jan'
p3696
aS'10'
p3697
asS'Winhunter'
p3698
(lp3699
S'2006'
p3700
aS'Sept'
p3701
ag544
asS'A Train'
p3702
(lp3703
S'2005'
p3704
aS'Aug'
p3705
aS'20'
p3706
asS'Omegatron'
p3707
(lp3708
S'2005'
p3709
aS'Jan'
p3710
aS'28'
p3711
asS'Brian0918'
p3712
(lp3713
S'2005'
p3714
aS'March'
p3715
ag126
asS'Vassyana'
p3716
(lp3717
S'2007'
p3718
aS'May'
p3719
aS'31'
p3720
asS'MBisanz'
p3721
(lp3722
S'2008'
p3723
aS'Feb'
p3724
aS'16'
p3725
asS'AuburnPilot'
p3726
(lp3727
S'2007'
p3728
aS'March'
p3729
ag126
asS'Husond'
p3730
(lp3731
S'2006'
p3732
aS'Nov'
p3733
aS'11'
p3734
asS'Jaranda'
p3735
(lp3736
S'2006'
p3737
aS'Nov'
p3738
aS'13'
p3739
asS'Nmajdan'
p3740
(lp3741
S'2007'
p3742
aS'April'
p3743
ag169
asS'Rje'
p3744
(lp3745
S'2005'
p3746
aS'Feb'
p3747
aS'16'
p3748
asS'Pollinator'
p3749
(lp3750
S'2004'
p3751
aS'March'
p3752
aS'27'
p3753
asS'Danny'
p3754
(lp3755
S'2007'
p3756
aS'April'
p3757
aS'10'
p3758
asS'Johan Elisson'
p3759
(lp3760
S'2006'
p3761
aS'Oct'
p3762
ag15
asS'Yamamoto Ichiro'
p3763
(lp3764
S'2007'
p3765
aS'May'
p3766
aS'25'
p3767
asS'Hu12'
p3768
(lp3769
S'2007'
p3770
aS'Feb'
p3771
aS'15'
p3772
asS'Eagle 101'
p3773
(lp3774
S'2006'
p3775
aS'Aug'
p3776
aS'26'
p3777
asS'J Di'
p3778
(lp3779
S'2006'
p3780
aS'Nov'
p3781
ag544
asS'Rockero'
p3782
(lp3783
S'2006'
p3784
aS'Apr'
p3785
aS'23'
p3786
asS'ShadowHalo'
p3787
(lp3788
S'2007'
p3789
aS'Feb'
p3790
aS'17'
p3791
asS'Wwwwolf'
p3792
(lp3793
S'2006'
p3794
aS'June'
p3795
ag544
asS'Metamagician3000'
p3796
(lp3797
S'2006'
p3798
aS'May'
p3799
ag169
asS'Daniel.Bryant'
p3800
(lp3801
S'2007'
p3802
aS'Jan'
p3803
aS'30'
p3804
asS'J.J.'
p3805
(lp3806
S'2003'
p3807
aS'Aug'
p3808
ag102
asS'Delldot'
p3809
(lp3810
S'2007'
p3811
aS'Feb'
p3812
aS'18'
p3813
asS"Rama's Arrow"
p3814
(lp3815
S'2006'
p3816
aS'Nov'
p3817
aS'17'
p3818
asS'Pschemp'
p3819
(lp3820
S'2006'
p3821
aS'Apr'
p3822
aS'10'
p3823
asS'Morwen'
p3824
(lp3825
S'2003'
p3826
aS'Nov'
p3827
ag102
asS'Rettetast'
p3828
(lp3829
S'2007'
p3830
aS'May'
p3831
aS'14'
p3832
asS'Fantasy'
p3833
(lp3834
S'2003'
p3835
aS'July'
p3836
ag102
asS'Proteus'
p3837
(lp3838
S'2004'
p3839
aS'Sept'
p3840
aS'24'
p3841
asS'Majorly'
p3842
(lp3843
S'2006'
p3844
aS'Oct'
p3845
aS'28'
p3846
asS'Aecis'
p3847
(lp3848
S'2006'
p3849
aS'Jan'
p3850
aS'14'
p3851
asS'TUF-KAT'
p3852
(lp3853
S'2002'
p3854
aS'Dec'
p3855
ag102
asS'Hesperian'
p3856
(lp3857
S'2005'
p3858
aS'Dec'
p3859
ag229
asS'Bobet'
p3860
(lp3861
S'2006'
p3862
aS'March'
p3863
ag102
asS'Bibliomaniac15'
p3864
(lp3865
S'2007'
p3866
aS'May'
p3867
ag102
asS'Timrollpickering'
p3868
(lp3869
S'2005'
p3870
aS'Feb'
p3871
aS'26'
p3872
asS'Sarah'
p3873
(lp3874
S'2006'
p3875
aS'Sept'
p3876
aS'19'
p3877
asS'Robin Patterson'
p3878
(lp3879
S'2004'
p3880
aS'Aug'
p3881
ag544
asS'IceKarma'
p3882
(lp3883
S'2005'
p3884
aS'Sept'
p3885
aS'24'
p3886
asS'CanadianCaesar'
p3887
(lp3888
S'2006'
p3889
aS'Feb'
p3890
aS'12'
p3891
asS'UkPaolo'
p3892
(lp3893
S'2006'
p3894
aS'Feb'
p3895
aS'19'
p3896
asS'Ike9898'
p3897
(lp3898
S'2004'
p3899
aS'Feb'
p3900
aS'12'
p3901
asS'Heron'
p3902
(lp3903
S'2003'
p3904
aS'Sept'
p3905
ag102
asS'Ground Zero'
p3906
(lp3907
S'2005'
p3908
aS'Aug'
p3909
aS'20'
p3910
asS'Yonatan'
p3911
(lp3912
S'2007'
p3913
aS'May'
p3914
aS'21'
p3915
asS'Bearcat'
p3916
(lp3917
S'2004'
p3918
aS'March'
p3919
aS'28'
p3920
asS'CMummert'
p3921
(lp3922
S'2007'
p3923
aS'March'
p3924
aS'23'
p3925
asS'Postdlf'
p3926
(lp3927
S'2004'
p3928
aS'Sept'
p3929
aS'29'
p3930
asS'SoothingR'
p3931
(lp3932
S'2006'
p3933
aS'Feb'
p3934
aS'18'
p3935
asS'Deville'
p3936
(lp3937
S'2006'
p3938
aS'Aug'
p3939
aS'24'
p3940
asS'Sundar'
p3941
(lp3942
S'2005'
p3943
aS'Apr'
p3944
ag34
asS'Pcb21'
p3945
(lp3946
S'2003'
p3947
aS'Aug'
p3948
ag102
asS'LordAmeth'
p3949
(lp3950
S'2005'
p3951
aS'Oct'
p3952
aS'14'
p3953
asS'Lupin'
p3954
(lp3955
S'2005'
p3956
aS'Aug'
p3957
aS'23'
p3958
asS'Lupo'
p3959
(lp3960
S'2004'
p3961
aS'Aug'
p3962
ag229
asS'Diberri'
p3963
(lp3964
S'2004'
p3965
aS'June'
p3966
aS'16'
p3967
asS'FloNight'
p3968
(lp3969
S'2006'
p3970
aS'May'
p3971
ag332
asS'Waggers'
p3972
(lp3973
S'2007'
p3974
aS'March'
p3975
aS'29'
p3976
asS'Jay'
p3977
(lp3978
S'2004'
p3979
aS'March'
p3980
aS'12'
p3981
asS'Friday'
p3982
(lp3983
S'2005'
p3984
aS'Oct'
p3985
aS'11'
p3986
asS'Mahanga'
p3987
(lp3988
S'2006'
p3989
aS'March'
p3990
aS'16'
p3991
asS'Icairns'
p3992
(lp3993
S'2005'
p3994
aS'Feb'
p3995
ag544
asS'Dsmdgold'
p3996
(lp3997
S'2006'
p3998
aS'Jan'
p3999
aS'16'
p4000
asS'The Rambling Man'
p4001
(lp4002
S'2007'
p4003
aS'May'
p4004
ag332
asS'Bdesham'
p4005
(lp4006
S'2003'
p4007
aS'June'
p4008
ag102
asS'Mangojuice'
p4009
(lp4010
S'2006'
p4011
aS'July'
p4012
ag544
asS'Physchim62'
p4013
(lp4014
S'2005'
p4015
aS'Nov'
p4016
ag5
asS'Biekko'
p4017
(lp4018
S'2005'
p4019
aS'Apr'
p4020
aS'16'
p4021
asS'Jdavidb'
p4022
(lp4023
S'2005'
p4024
aS'Oct'
p4025
ag229
asS'Myleslong'
p4026
(lp4027
S'2006'
p4028
aS'March'
p4029
aS'15'
p4030
asS'G-Man'
p4031
(lp4032
S'2003'
p4033
aS'June'
p4034
ag102
asS'RedWolf'
p4035
(lp4036
S'2004'
p4037
aS'Feb'
p4038
aS'24'
p4039
asS'Caltrop'
p4040
(lp4041
S'2004'
p4042
aS'Jan'
p4043
aS'13'
p4044
asS'Herostratus'
p4045
(lp4046
S'2006'
p4047
aS'June'
p4048
aS'21'
p4049
asS'Bovlb'
p4050
(lp4051
S'2005'
p4052
aS'Sept'
p4053
aS'26'
p4054
asS"Nae'blis"
p4055
(lp4056
S'2006'
p4057
aS'Nov'
p4058
aS'28'
p4059
asS'Sasquatch'
p4060
(lp4061
S'2005'
p4062
aS'July'
p4063
aS'28'
p4064
asS'Wknight94'
p4065
(lp4066
S'2006'
p4067
aS'July'
p4068
aS'16'
p4069
asS'Cuivienen'
p4070
(lp4071
S'2006'
p4072
aS'June'
p4073
aS'15'
p4074
asS'Thue'
p4075
(lp4076
S'2004'
p4077
aS'July'
p4078
aS'28'
p4079
asS'Ryulong'
p4080
(lp4081
S'2007'
p4082
aS'Jan'
p4083
aS'24'
p4084
asS'Gentgeen'
p4085
(lp4086
S'2004'
p4087
aS'Apr'
p4088
aS'25'
p4089
asS'Jredmond'
p4090
(lp4091
S'2005'
p4092
aS'July'
p4093
aS'14'
p4094
asS'ProveIt'
p4095
(lp4096
S'2007'
p4097
aS'Feb'
p4098
aS'21'
p4099
asS'Denni'
p4100
(lp4101
S'2004'
p4102
aS'July'
p4103
ag102
asS'Ceyockey'
p4104
(lp4105
S'2006'
p4106
aS'Dec'
p4107
aS'14'
p4108
asS'BanyanTree'
p4109
(lp4110
S'2006'
p4111
aS'Oct'
p4112
ag126
asS'Xezbeth'
p4113
(lp4114
S'2005'
p4115
aS'Apr'
p4116
aS'18'
p4117
asS'Arctic.gnome'
p4118
(lp4119
S'2007'
p4120
aS'May'
p4121
aS'21'
p4122
asS'Timwi'
p4123
(lp4124
S'2003'
p4125
aS'Dec'
p4126
ag102
asS'Edward Z. Yang'
p4127
(lp4128
S'2006'
p4129
aS'Jan'
p4130
aS'18'
p4131
asS'Ran'
p4132
(lp4133
S'2004'
p4134
aS'Nov'
p4135
aS'14'
p4136
asS'Atlant'
p4137
(lp4138
S'2006'
p4139
aS'Oct'
p4140
aS'18'
p4141
asS'Gamaliel'
p4142
(lp4143
S'2004'
p4144
aS'Nov'
p4145
aS'21'
p4146
asS'Alex S'
p4147
(lp4148
S'2004'
p4149
aS'March'
p4150
aS'17'
p4151
asS'Veinor'
p4152
(lp4153
S'2007'
p4154
aS'March'
p4155
ag126
asS'Ta bu shi da yu'
p4156
(lp4157
S'2005'
p4158
aS'June'
p4159
aS'28'
p4160
asS'Makemi'
p4161
(lp4162
S'2006'
p4163
aS'March'
p4164
aS'25'
p4165
asS'Wafulz'
p4166
(lp4167
S'2007'
p4168
aS'March'
p4169
aS'22'
p4170
asS'Petros471'
p4171
(lp4172
S'2006'
p4173
aS'Apr'
p4174
aS'18'
p4175
asS'Plange'
p4176
(lp4177
S'2006'
p4178
aS'Oct'
p4179
aS'20'
p4180
asS'Lostintherush'
p4181
(lp4182
S'2006'
p4183
aS'Nov'
p4184
ag34
asS'Natalie Erin'
p4185
(lp4186
S'2007'
p4187
aS'March'
p4188
aS'14'
p4189
asS'Circeus'
p4190
(lp4191
S'2006'
p4192
aS'Apr'
p4193
ag126
asS'HereToHelp'
p4194
(lp4195
S'2006'
p4196
aS'Apr'
p4197
ag102
asS'Kyorosuke'
p4198
(lp4199
S'2006'
p4200
aS'July'
p4201
aS'23'
p4202
asS'Mark'
p4203
(lp4204
S'2004'
p4205
aS'July'
p4206
aS'12'
p4207
asS'Malcolm Farmer'
p4208
(lp4209
S'2004'
p4210
aS'Dec'
p4211
ag15
asS'Xaosflux'
p4212
(lp4213
S'2006'
p4214
aS'Feb'
p4215
aS'17'
p4216
asS'Evil Monkey'
p4217
(lp4218
S'2005'
p4219
aS'May'
p4220
aS'27'
p4221
asS'Fir0002'
p4222
(lp4223
S'2006'
p4224
aS'June'
p4225
aS'13'
p4226
asS'Rossami'
p4227
(lp4228
S'2004'
p4229
aS'Sept'
p4230
ag102
asS'AzaToth'
p4231
(lp4232
S'2007'
p4233
aS'March'
p4234
aS'21'
p4235
asS'The Tom'
p4236
(lp4237
S'2005'
p4238
aS'Nov'
p4239
aS'23'
p4240
asS'Rschen7754'
p4241
(lp4242
S'2005'
p4243
aS'Dec'
p4244
aS'16'
p4245
asS'Aaron Brenneman'
p4246
(lp4247
S'2006'
p4248
aS'Feb'
p4249
ag169
asS'Nixdorf'
p4250
(lp4251
S'2006'
p4252
aS'Jan'
p4253
ag229
asS'Marine 69-71'
p4254
(lp4255
S'2005'
p4256
aS'May'
p4257
aS'31'
p4258
asS'Stemonitis'
p4259
(lp4260
S'2006'
p4261
aS'Dec'
p4262
ag169
asS'Quarl'
p4263
(lp4264
S'2006'
p4265
aS'Feb'
p4266
ag15
asS'Riana'
p4267
(lp4268
S'2007'
p4269
aS'Feb'
p4270
aS'15'
p4271
asS'MCB'
p4272
(lp4273
S'2006'
p4274
aS'Oct'
p4275
aS'25'
p4276
asS'Starblind'
p4277
(lp4278
S'2005'
p4279
aS'July'
p4280
ag34
asS'Gwalla'
p4281
(lp4282
S'2004'
p4283
aS'Oct'
p4284
aS'17'
p4285
asS'King of Hearts'
p4286
(lp4287
S'2006'
p4288
aS'May'
p4289
aS'20'
p4290
asS'Chick Bowen'
p4291
(lp4292
S'2006'
p4293
aS'Oct'
p4294
aS'26'
p4295
asS'Idont Havaname'
p4296
(lp4297
S'2006'
p4298
aS'Jan'
p4299
ag5
asS'Jdforrester'
p4300
(lp4301
S'2003'
p4302
aS'June'
p4303
ag102
asS'Haukurth'
p4304
(lp4305
S'2006'
p4306
aS'Jan'
p4307
aS'22'
p4308
asS'Rebelguys2'
p4309
(lp4310
S'2007'
p4311
aS'March'
p4312
aS'22'
p4313
asS'Babajobu'
p4314
(lp4315
S'2006'
p4316
aS'Jan'
p4317
ag5
asS'Celestianpower'
p4318
(lp4319
S'2005'
p4320
aS'Oct'
p4321
aS'15'
p4322
asS'DropDeadGorgias'
p4323
(lp4324
S'2004'
p4325
aS'Aug'
p4326
ag544
asS'Matt Britt'
p4327
(lp4328
S'2007'
p4329
aS'May'
p4330
ag102
asS'Rockpocket'
p4331
(lp4332
S'2006'
p4333
aS'Nov'
p4334
aS'10'
p4335
asS'Art LaPella'
p4336
(lp4337
S'2006'
p4338
aS'Nov'
p4339
ag5
asS'Timc'
p4340
(lp4341
S'2004'
p4342
aS'Nov'
p4343
aS'24'
p4344
asS'Thryduulf'
p4345
(lp4346
S'2005'
p4347
aS'June'
p4348
ag229
asS'PierreAbbat'
p4349
(lp4350
S'2002'
p4351
ag399
ag102
asS'Arwel Parry'
p4352
(lp4353
S'2003'
p4354
aS'Oct'
p4355
ag102
asS'Syrthiss'
p4356
(lp4357
S'2005'
p4358
aS'Dec'
p4359
aS'14'
p4360
asS'Chmod007'
p4361
(lp4362
S'2004'
p4363
aS'Sept'
p4364
aS'23'
p4365
asS'Sjc'
p4366
(lp4367
S'2002'
p4368
ag399
ag102
asS'Egil'
p4369
(lp4370
S'2005'
p4371
aS'Nov'
p4372
ag332
asS'TimVickers'
p4373
(lp4374
S'2007'
p4375
aS'Feb'
p4376
aS'25'
p4377
asS'Ginkgo100'
p4378
(lp4379
S'2006'
p4380
aS'Oct'
p4381
aS'18'
p4382
asS'Prolog'
p4383
(lp4384
S'2007'
p4385
aS'May'
p4386
ag102
asS'Walton monarchist89'
p4387
(lp4388
S'2007'
p4389
aS'April'
p4390
aS'20'
p4391
asS'Jpgordon'
p4392
(lp4393
S'2004'
p4394
aS'Nov'
p4395
aS'26'
p4396
asS'Avraham'
p4397
(lp4398
S'2006'
p4399
aS'July'
p4400
ag332
asS'Seraphimblade'
p4401
(lp4402
S'2007'
p4403
aS'March'
p4404
aS'13'
p4405
asS'JoshuaZ'
p4406
(lp4407
S'2006'
p4408
aS'May'
p4409
ag15
asS'RHaworth'
p4410
(lp4411
S'2005'
p4412
aS'Aug'
p4413
aS'15'
p4414
asS'Elf-friend'
p4415
(lp4416
S'2006'
p4417
aS'Feb'
p4418
aS'16'
p4419
asS'MisfitToys'
p4420
(lp4421
S'2006'
p4422
aS'Aug'
p4423
ag34
asS'Royboycrashfan'
p4424
(lp4425
S'2006'
p4426
aS'Apr'
p4427
aS'10'
p4428
asS'Harro5'
p4429
(lp4430
S'2005'
p4431
aS'Nov'
p4432
aS'27'
p4433
asS'Thatcher131'
p4434
(lp4435
S'2006'
p4436
aS'Sept'
p4437
aS'22'
p4438
asS'Jkelly'
p4439
(lp4440
S'2005'
p4441
aS'Nov'
p4442
aS'25'
p4443
asS'Oliver Pereira'
p4444
(lp4445
S'2003'
p4446
aS'March'
p4447
ag102
asS'Pengo'
p4448
(lp4449
S'2006'
p4450
aS'Sept'
p4451
aS'26'
p4452
asS'Sverdrup'
p4453
(lp4454
S'2004'
p4455
aS'Apr'
p4456
ag5
asS'RJFJR'
p4457
(lp4458
S'2005'
p4459
aS'Oct'
p4460
aS'12'
p4461
asS'Pjacobi'
p4462
(lp4463
S'2005'
p4464
aS'June'
p4465
ag34
asS'Brian Kendig'
p4466
(lp4467
S'2005'
p4468
aS'Oct'
p4469
ag15
asS'Olivier'
p4470
(lp4471
S'2003'
p4472
aS'June'
p4473
ag102
asS'Elf'
p4474
(lp4475
S'2004'
p4476
aS'June'
p4477
aS'12'
p4478
asS'Jnothman'
p4479
(lp4480
S'2005'
p4481
aS'Dec'
p4482
aS'25'
p4483
asS'Daniel Olsen'
p4484
(lp4485
S'2006'
p4486
aS'Nov'
p4487
ag5
asS'IronGargoyle'
p4488
(lp4489
S'2006'
p4490
aS'Oct'
p4491
ag34
asS'Blankfaze'
p4492
(lp4493
S'2004'
p4494
aS'July'
p4495
ag5
asS'ZimZalaBim'
p4496
(lp4497
S'2006'
p4498
aS'June'
p4499
aS'22'
p4500
asS'David Levy'
p4501
(lp4502
S'2005'
p4503
aS'Dec'
p4504
aS'28'
p4505
asS'Andrew Levine'
p4506
(lp4507
S'2006'
p4508
aS'Aug'
p4509
aS'16'
p4510
asS'Topbanana'
p4511
(lp4512
S'2004'
p4513
aS'Aug'
p4514
aS'11'
p4515
asS'David Fuchs'
p4516
(lp4517
S'2007'
p4518
aS'May'
p4519
aS'13'
p4520
asS'Scipius'
p4521
(lp4522
S'2002'
p4523
ag399
ag102
asS'Oberiko'
p4524
(lp4525
S'2004'
p4526
aS'June'
p4527
aS'20'
p4528
asS'Stormie'
p4529
(lp4530
S'2004'
p4531
aS'Aug'
p4532
ag544
asS'Dragons flight'
p4533
(lp4534
S'2005'
p4535
aS'Aug'
p4536
aS'20'
p4537
asS'RobyWayne'
p4538
(lp4539
S'2005'
p4540
aS'Oct'
p4541
aS'18'
p4542
asS'William Pietri'
p4543
(lp4544
S'2007'
p4545
aS'May'
p4546
ag169
asS'Thebainer'
p4547
(lp4548
S'2005'
p4549
aS'Dec'
p4550
ag15
asS'Taxman'
p4551
(lp4552
S'2004'
p4553
aS'Dec'
p4554
aS'10'
p4555
asS'Natalinasmpf'
p4556
(lp4557
S'2005'
p4558
aS'Dec'
p4559
aS'31'
p4560
asS'AxelBoldt'
p4561
(lp4562
S'2002'
p4563
ag399
ag102
asS'DrBob'
p4564
(lp4565
S'2005'
p4566
aS'Nov'
p4567
ag34
asS'Deskana'
p4568
(lp4569
S'2006'
p4570
aS'May'
p4571
ag102
asS'Tawker'
p4572
(lp4573
S'2006'
p4574
aS'Apr'
p4575
aS'10'
p4576
asS'Josiah Rowe'
p4577
(lp4578
S'2006'
p4579
aS'Feb'
p4580
aS'14'
p4581
asS'HorsePunchKid'
p4582
(lp4583
S'2005'
p4584
aS'Dec'
p4585
ag102
asS'Fuhghettaboutit'
p4586
(lp4587
S'2007'
p4588
aS'April'
p4589
aS'13'
p4590
asS'Cool Hand Luke'
p4591
(lp4592
S'2004'
p4593
aS'Oct'
p4594
aS'25'
p4595
asS'Alabamaboy'
p4596
(lp4597
S'2005'
p4598
aS'Oct'
p4599
aS'29'
p4600
asS'Violetriga'
p4601
(lp4602
S'2004'
p4603
aS'Nov'
p4604
ag34
asS'Lee Daniel Crocker'
p4605
(lp4606
S'2002'
p4607
ag399
ag102
asS'Howcheng'
p4608
(lp4609
S'2005'
p4610
aS'Dec'
p4611
aS'26'
p4612
asS'TomTheHand'
p4613
(lp4614
S'2006'
p4615
aS'Aug'
p4616
aS'23'
p4617
asS'Ahoerstemeier'
p4618
(lp4619
S'2003'
p4620
aS'Aug'
p4621
aS'20'
p4622
asS'Nandesuka'
p4623
(lp4624
S'2005'
p4625
aS'Sept'
p4626
aS'16'
p4627
asS'Zzuuzz'
p4628
(lp4629
S'2007'
p4630
aS'Feb'
p4631
aS'18'
p4632
asS'Persian Poet Gal'
p4633
(lp4634
S'2007'
p4635
aS'Feb'
p4636
aS'15'
p4637
asS'Oscarthecat'
p4638
(lp4639
S'2006'
p4640
aS'Sept'
p4641
aS'10'
p4642
asS'FeloniousMonk'
p4643
(lp4644
S'2005'
p4645
aS'Aug'
p4646
aS'13'
p4647
asS'DavidLevinson'
p4648
(lp4649
S'2003'
p4650
aS'Nov'
p4651
ag102
asS'Fire Star'
p4652
(lp4653
S'2004'
p4654
aS'Oct'
p4655
aS'12'
p4656
asS'Tyrenius'
p4657
(lp4658
S'2006'
p4659
aS'July'
p4660
ag15
asS'Tkinias'
p4661
(lp4662
S'2004'
p4663
aS'Dec'
p4664
aS'13'
p4665
asS'Mikeblas'
p4666
(lp4667
S'2007'
p4668
aS'April'
p4669
aS'10'
p4670
asS'Deb'
p4671
(lp4672
S'2003'
p4673
aS'June'
p4674
ag102
asS'Keenan Pepper'
p4675
(lp4676
S'2006'
p4677
aS'May'
p4678
ag102
asS'Morven'
p4679
(lp4680
S'2004'
p4681
aS'Jan'
p4682
aS'26'
p4683
asS'Kingboyk'
p4684
(lp4685
S'2006'
p4686
aS'March'
p4687
ag544
asS'Dgies'
p4688
(lp4689
S'2007'
p4690
aS'April'
p4691
aS'11'
p4692
asS'EvanProdromou'
p4693
(lp4694
S'2005'
p4695
aS'Dec'
p4696
aS'14'
p4697
asS'Burgundavia'
p4698
(lp4699
S'2005'
p4700
aS'Apr'
p4701
aS'19'
p4702
asS'Kusma'
p4703
(lp4704
S'2006'
p4705
aS'Apr'
p4706
ag34
asS'Edcolins'
p4707
(lp4708
S'2005'
p4709
aS'Oct'
p4710
aS'28'
p4711
asS'Chairboy'
p4712
(lp4713
S'2006'
p4714
aS'Jan'
p4715
aS'27'
p4716
asS'Fastfission'
p4717
(lp4718
S'2005'
p4719
aS'Oct'
p4720
aS'10'
p4721
asS'Durova'
p4722
(lp4723
S'2006'
p4724
aS'Oct'
p4725
aS'17'
p4726
asS'Deckiller'
p4727
(lp4728
S'2006'
p4729
aS'March'
p4730
aS'10'
p4731
asS'Anetode'
p4732
(lp4733
S'2007'
p4734
aS'Feb'
p4735
aS'26'
p4736
asS'Mindmatrix'
p4737
(lp4738
S'2005'
p4739
aS'Dec'
p4740
ag544
asS'TwinsMetsFan'
p4741
(lp4742
S'2007'
p4743
aS'May'
p4744
ag229
asS'Brookie'
p4745
(lp4746
S'2005'
p4747
aS'Sept'
p4748
aS'25'
p4749
asS'Dmcdevit'
p4750
(lp4751
S'2005'
p4752
aS'July'
p4753
aS'25'
p4754
asS'HappyCamper'
p4755
(lp4756
S'2005'
p4757
aS'Aug'
p4758
aS'23'
p4759
asS'Secretlondon'
p4760
(lp4761
S'2003'
p4762
aS'Nov'
p4763
ag102
asS'Alison'
p4764
(lp4765
S'2007'
p4766
aS'March'
p4767
aS'21'
p4768
asS'Graft'
p4769
(lp4770
S'2005'
p4771
aS'Oct'
p4772
ag34
asS'CattleGirl'
p4773
(lp4774
S'2007'
p4775
aS'May'
p4776
aS'14'
p4777
asS'RyanGerbil10'
p4778
(lp4779
S'2006'
p4780
aS'July'
p4781
aS'26'
p4782
asS'RoySmith'
p4783
(lp4784
S'2005'
p4785
aS'Oct'
p4786
ag169
asS'Doug Bell'
p4787
(lp4788
S'2006'
p4789
aS'Nov'
p4790
aS'24'
p4791
asS'Carabinieri'
p4792
(lp4793
S'2007'
p4794
aS'Feb'
p4795
ag34
asS'Woggly'
p4796
(lp4797
S'2004'
p4798
aS'Dec'
p4799
ag229
asS'Asterion'
p4800
(lp4801
S'2006'
p4802
aS'Dec'
p4803
aS'27'
p4804
asS'Merovingian'
p4805
(lp4806
S'2004'
p4807
aS'March'
p4808
aS'16'
p4809
asS'NCurse'
p4810
(lp4811
S'2006'
p4812
aS'Oct'
p4813
ag34
asS'Edward'
p4814
(lp4815
S'2005'
p4816
aS'Jan'
p4817
ag15
asS'Moreschi'
p4818
(lp4819
S'2007'
p4820
aS'May'
p4821
aS'12'
p4822
asS'Firsfron'
p4823
(lp4824
S'2006'
p4825
aS'July'
p4826
aS'28'
p4827
asS'JamesTeterenko'
p4828
(lp4829
S'2005'
p4830
aS'July'
p4831
aS'27'
p4832
asS'Harryboyles'
p4833
(lp4834
S'2007'
p4835
aS'March'
p4836
ag544
asS'Meegs'
p4837
(lp4838
S'2006'
p4839
aS'March'
p4840
aS'11'
p4841
asS'Jerzy'
p4842
(lp4843
S'2004'
p4844
aS'May'
p4845
aS'27'
p4846
asS'Andrewa'
p4847
(lp4848
S'2004'
p4849
aS'Apr'
p4850
ag229
asS'Humus sapiens'
p4851
(lp4852
S'2006'
p4853
aS'Apr'
p4854
aS'26'
p4855
asS'Andres'
p4856
(lp4857
S'2003'
p4858
aS'Dec'
p4859
aS'20'
p4860
asS'Pascal.Tesson'
p4861
(lp4862
S'2007'
p4863
aS'May'
p4864
aS'29'
p4865
asS'AlistairMcMillan'
p4866
(lp4867
S'2005'
p4868
aS'Aug'
p4869
aS'12'
p4870
asS'Trevor MacInnis'
p4871
(lp4872
S'2005'
p4873
aS'Sept'
p4874
aS'16'
p4875
asS'RexNL'
p4876
(lp4877
S'2006'
p4878
aS'Jan'
p4879
aS'28'
p4880
asS'Mackensen'
p4881
(lp4882
S'2004'
p4883
aS'Sept'
p4884
aS'30'
p4885
asS'Dbachmann'
p4886
(lp4887
S'2004'
p4888
aS'Nov'
p4889
aS'11'
p4890
asS'BillyH'
p4891
(lp4892
S'2005'
p4893
aS'Oct'
p4894
ag169
asS'Zsinj'
p4895
(lp4896
S'2006'
p4897
aS'Aug'
p4898
aS'23'
p4899
asS'Chuq'
p4900
(lp4901
S'2004'
p4902
aS'Sept'
p4903
aS'29'
p4904
asS'Bookofjude'
p4905
(lp4906
S'2006'
p4907
aS'May'
p4908
aS'26'
p4909
asS'Yamla'
p4910
(lp4911
S'2006'
p4912
aS'Jan'
p4913
aS'19'
p4914
asS'Saravask'
p4915
(lp4916
S'2006'
p4917
aS'May'
p4918
ag126
asS'Jondel'
p4919
(lp4920
S'2005'
p4921
aS'Aug'
p4922
ag5
asS'Olessi'
p4923
(lp4924
S'2006'
p4925
aS'Oct'
p4926
aS'28'
p4927
asS'Misza13'
p4928
(lp4929
S'2006'
p4930
aS'July'
p4931
aS'22'
p4932
asS'RoyBoy'
p4933
(lp4934
S'2005'
p4935
aS'Oct'
p4936
ag229
asS'Turnstep'
p4937
(lp4938
S'2006'
p4939
aS'March'
p4940
aS'31'
p4941
asS'Ral315'
p4942
(lp4943
S'2005'
p4944
aS'Sept'
p4945
aS'10'
p4946
asS'Jake Nelson'
p4947
(lp4948
S'2003'
p4949
aS'Oct'
p4950
ag102
asS'BorgQueen'
p4951
(lp4952
S'2005'
p4953
aS'Dec'
p4954
aS'28'
p4955
asS'Wangi'
p4956
(lp4957
S'2006'
p4958
aS'Aug'
p4959
aS'18'
p4960
asS'David Newton'
p4961
(lp4962
S'2004'
p4963
aS'March'
p4964
ag544
asS'JoJan'
p4965
(lp4966
S'2005'
p4967
aS'June'
p4968
aS'25'
p4969
asS'Luna Santin'
p4970
(lp4971
S'2006'
p4972
aS'Sept'
p4973
aS'10'
p4974
asS'Arvindn'
p4975
(lp4976
S'2004'
p4977
aS'March'
p4978
ag544
asS'Ryanpostlethwaite'
p4979
(lp4980
S'2007'
p4981
aS'March'
p4982
aS'10'
p4983
asS'GrahamColm'
p4984
(lp4985
S'2008'
p4986
aS'December'
p4987
aS'29'
p4988
asS'MarkSweep'
p4989
(lp4990
S'2005'
p4991
aS'Aug'
p4992
ag5
asS'Mikkalai'
p4993
(lp4994
S'2004'
p4995
aS'Feb'
p4996
aS'17'
p4997
asS"Can't sleep, clown will eat me"
p4998
(lp4999
S'2006'
p5000
aS'Apr'
p5001
ag15
asS'KimvdLinde'
p5002
(lp5003
S'2006'
p5004
aS'June'
p5005
ag229
asS'Michael Snow'
p5006
(lp5007
S'2004'
p5008
aS'Apr'
p5009
aS'28'
p5010
asS'Dale Arnett'
p5011
(lp5012
S'2004'
p5013
aS'March'
p5014
aS'23'
p5015
asS'Crum375'
p5016
(lp5017
S'2007'
p5018
aS'Feb'
p5019
aS'21'
p5020
asS'Marianocecowski'
p5021
(lp5022
S'2005'
p5023
aS'Aug'
p5024
aS'30'
p5025
asS'Arcadian'
p5026
(lp5027
S'2005'
p5028
aS'May'
p5029
aS'24'
p5030
asS'Malcolm'
p5031
(lp5032
S'2007'
p5033
aS'Feb'
p5034
aS'18'
p5035
asS'Audacity'
p5036
(lp5037
S'2007'
p5038
aS'May'
p5039
aS'21'
p5040
asS'Netsnipe'
p5041
(lp5042
S'2006'
p5043
aS'Sept'
p5044
ag332
asS'AndyZ'
p5045
(lp5046
S'2006'
p5047
aS'May'
p5048
ag126
asS'Shimeru'
p5049
(lp5050
S'2007'
p5051
aS'March'
p5052
aS'15'
p5053
asS'Jedi6'
p5054
(lp5055
S'2006'
p5056
aS'Apr'
p5057
aS'12'
p5058
asS'Xoloz'
p5059
(lp5060
S'2006'
p5061
aS'May'
p5062
aS'17'
p5063
asS'ERcheck'
p5064
(lp5065
S'2006'
p5066
aS'July'
p5067
aS'30'
p5068
asS'AnonEMouse'
p5069
(lp5070
S'2006'
p5071
aS'Nov'
p5072
ag15
asS'Maveric149'
p5073
(lp5074
S'2002'
p5075
ag399
ag102
asS'Cimon avaro'
p5076
(lp5077
S'2003'
p5078
aS'June'
p5079
ag102
asS'Samir'
p5080
(lp5081
S'2006'
p5082
aS'June'
p5083
aS'13'
p5084
asS'Sir Nicholas de Mimsy-Porpington'
p5085
(lp5086
S'2006'
p5087
aS'Aug'
p5088
ag544
asS'Schissel'
p5089
(lp5090
S'2005'
p5091
aS'June'
p5092
aS'20'
p5093
asS'Modemac'
p5094
(lp5095
S'2003'
p5096
aS'Sept'
p5097
ag102
as.