(dp0
S'168...'
p1
(dp2
S'before_block'
p3
(lp4
(dp5
Vcomment
p6
V
p7
sVsizediff
p8
I278
sVpageid
p9
I468047
sVtitle
p10
VWikipedia:Requests for comment/168
p11
sVtimestamp
p12
V2004-03-07T06:57:03Z
p13
sVtags
p14
(lp15
sVuserid
p16
I7488
sVrevid
p17
I2662870
sVuser
p18
V168...
p19
sVparentid
p20
I2662458
sVns
p21
I4
sVsize
p22
I70948
sa(dp23
Vcomment
p24
g7
sVsizediff
p25
I9
sVpageid
p26
I449877
sVtitle
p27
VWikipedia:Requests for comment
p28
sVtimestamp
p29
V2004-03-07T04:42:07Z
p30
sVtags
p31
(lp32
sVuserid
p33
I7488
sVrevid
p34
I2661706
sVuser
p35
V168...
p36
sVparentid
p37
I2661438
sVns
p38
I4
sVsize
p39
I9559
sa(dp40
Vcomment
p41
g7
sVsizediff
p42
I0
sVpageid
p43
I449877
sVtitle
p44
VWikipedia:Requests for comment
p45
sVtimestamp
p46
V2004-03-07T04:40:30Z
p47
sVtags
p48
(lp49
sVuserid
p50
I7488
sVrevid
p51
I2661438
sVuser
p52
V168...
p53
sVparentid
p54
I2661424
sVns
p55
I4
sVsize
p56
I9550
sa(dp57
Vcomment
p58
g7
sVsizediff
p59
I27
sVpageid
p60
I449877
sVtitle
p61
VWikipedia:Requests for comment
p62
sVtimestamp
p63
V2004-03-07T04:40:06Z
p64
sVtags
p65
(lp66
sVuserid
p67
I7488
sVrevid
p68
I2661424
sVuser
p69
V168...
p70
sVparentid
p71
I2661420
sVns
p72
I4
sVsize
p73
I9550
sa(dp74
Vcomment
p75
g7
sVsizediff
p76
I189
sVpageid
p77
I468047
sVtitle
p78
VWikipedia:Requests for comment/168
p79
sVtimestamp
p80
V2004-03-07T04:39:05Z
p81
sVtags
p82
(lp83
sVuserid
p84
I7488
sVrevid
p85
I2661535
sVuser
p86
V168...
p87
sVparentid
p88
I2661414
sVns
p89
I4
sVsize
p90
I65400
sa(dp91
Vcomment
p92
g7
sVsizediff
p93
I307
sVpageid
p94
I449877
sVtitle
p95
VWikipedia:Requests for comment
p96
sVtimestamp
p97
V2004-03-07T04:34:31Z
p98
sVtags
p99
(lp100
sVuserid
p101
I7488
sVrevid
p102
I2661409
sVuser
p103
V168...
p104
sVparentid
p105
I2661379
sVns
p106
I4
sVsize
p107
I9534
sa(dp108
Vcomment
p109
g7
sVsizediff
p110
I32
sVpageid
p111
I10669375
sVtitle
p112
VWikipedia:Lists of protected pages
p113
sVtimestamp
p114
V2004-03-07T04:27:51Z
p115
sVtags
p116
(lp117
sVuserid
p118
I7488
sVrevid
p119
I2661343
sVuser
p120
V168...
p121
sVparentid
p122
I2661326
sVns
p123
I4
sVsize
p124
I14436
sa(dp125
Vcomment
p126
Vfix protection msg
p127
sVsizediff
p128
I3
sVpageid
p129
I7955
sVtitle
p130
VDNA
p131
sVtimestamp
p132
V2004-03-07T04:22:12Z
p133
sVtags
p134
(lp135
sVuserid
p136
I7488
sVrevid
p137
I2665561
sVuser
p138
V168...
p139
sVparentid
p140
I2661263
sVns
p141
I0
sVsize
p142
I17539
sa(dp143
Vcomment
p144
g7
sVsizediff
p145
I88
sVpageid
p146
I10669375
sVtitle
p147
VWikipedia:Lists of protected pages
p148
sVtimestamp
p149
V2004-03-07T04:21:04Z
p150
sVtags
p151
(lp152
sVuserid
p153
I7488
sVrevid
p154
I2661326
sVuser
p155
V168...
p156
sVparentid
p157
I2661252
sVns
p158
I4
sVsize
p159
I14404
sa(dp160
Vcomment
p161
g7
sVsizediff
p162
I75
sVpageid
p163
I10669375
sVtitle
p164
VWikipedia:Lists of protected pages
p165
sVtimestamp
p166
V2004-03-07T04:20:43Z
p167
sVtags
p168
(lp169
sVuserid
p170
I7488
sVrevid
p171
I2661252
sVuser
p172
V168...
p173
sVparentid
p174
I2661246
sVns
p175
I4
sVsize
p176
I14316
sa(dp177
Vcomment
p178
Vprotected page msg
p179
sVsizediff
p180
I15
sVpageid
p181
I7955
sVtitle
p182
VDNA
p183
sVtimestamp
p184
V2004-03-07T04:18:45Z
p185
sVtags
p186
(lp187
sVuserid
p188
I7488
sVrevid
p189
I2661263
sVuser
p190
V168...
p191
sVparentid
p192
I2661224
sVns
p193
I0
sVsize
p194
I17536
sa(dp195
Vcomment
p196
VReverted edits by Bryan Derksen to last version by 168...
p197
sVsizediff
p198
I-296
sVpageid
p199
I7955
sVtitle
p200
VDNA
p201
sVtimestamp
p202
V2004-03-07T04:17:50Z
p203
sVtags
p204
(lp205
sVuserid
p206
I7488
sVrevid
p207
I2661224
sVuser
p208
V168...
p209
sVparentid
p210
I2661213
sVns
p211
I0
sVsize
p212
I17521
sa(dp213
Vcomment
p214
g7
sVsizediff
p215
I-296
sVpageid
p216
I7955
sVtitle
p217
VDNA
p218
sVtimestamp
p219
V2004-03-07T04:15:08Z
p220
sVtags
p221
(lp222
sVuserid
p223
I7488
sVrevid
p224
I2661199
sVuser
p225
V168...
p226
sVparentid
p227
I2661183
sVns
p228
I0
sVsize
p229
I17521
sa(dp230
Vcomment
p231
VMav you cannot act as arbitrator here, you have proven your bias
p232
sVsizediff
p233
I-266
sVpageid
p234
I7955
sVtitle
p235
VDNA
p236
sVtimestamp
p237
V2004-03-07T03:17:33Z
p238
sVtags
p239
(lp240
sVuserid
p241
I7488
sVrevid
p242
I2660667
sVuser
p243
V168...
p244
sVparentid
p245
I2660623
sVns
p246
I0
sVsize
p247
I17521
sa(dp248
Vcomment
p249
Vmerged paragraph is long-winded
p250
sVsizediff
p251
I-219
sVpageid
p252
I7955
sVtitle
p253
VDNA
p254
sVtimestamp
p255
V2004-03-07T03:03:29Z
p256
sVtags
p257
(lp258
sVuserid
p259
I7488
sVrevid
p260
I2660526
sVuser
p261
V168...
p262
sVparentid
p263
I2660496
sVns
p264
I0
sVsize
p265
I17566
sa(dp266
Vcomment
p267
Vreinsert mav's minor changes overwritten in revert
p268
sVsizediff
p269
I71
sVpageid
p270
I7955
sVtitle
p271
VDNA
p272
sVtimestamp
p273
V2004-03-07T00:22:45Z
p274
sVtags
p275
(lp276
sVuserid
p277
I7488
sVrevid
p278
I2659491
sVuser
p279
V168...
p280
sVparentid
p281
I2658945
sVns
p282
I0
sVsize
p283
I17566
sa(dp284
Vcomment
p285
Vrv according to what is fair
p286
sVsizediff
p287
I-168
sVpageid
p288
I7955
sVtitle
p289
VDNA
p290
sVtimestamp
p291
V2004-03-07T00:09:56Z
p292
sVtags
p293
(lp294
sVuserid
p295
I7488
sVrevid
p296
I2658945
sVuser
p297
V168...
p298
sVparentid
p299
I2658794
sVns
p300
I0
sVsize
p301
I17495
sa(dp302
Vcomment
p303
V"chromosomes" now redundant in second paragraph
p304
sVsizediff
p305
I-43
sVpageid
p306
I7955
sVtitle
p307
VDNA
p308
sVtimestamp
p309
V2004-03-06T21:30:43Z
p310
sVtags
p311
(lp312
sVuserid
p313
I7488
sVrevid
p314
I2657000
sVuser
p315
V168...
p316
sVparentid
p317
I2656927
sVns
p318
I0
sVsize
p319
I17495
sa(dp320
Vcomment
p321
Vi believe more people like this version
p322
sVsizediff
p323
I-103
sVpageid
p324
I7955
sVtitle
p325
VDNA
p326
sVtimestamp
p327
V2004-03-06T21:29:26Z
p328
sVtags
p329
(lp330
sVuserid
p331
I7488
sVrevid
p332
I2656927
sVuser
p333
V168...
p334
sVparentid
p335
I2656915
sVns
p336
I0
sVsize
p337
I17538
sa(dp338
Vcomment
p339
g7
sVsizediff
p340
I247
sVpageid
p341
I474388
sVtitle
p342
VBacteriorhodopsin
p343
sVtimestamp
p344
V2004-03-05T08:08:44Z
p345
sVtags
p346
(lp347
sVuserid
p348
I7488
sVrevid
p349
I4054266
sVuser
p350
V168...
p351
sVparentid
p352
I2635350
sVns
p353
I0
sVsize
p354
I696
sa(dp355
Vcomment
p356
g7
sVsizediff
p357
I-12
sVpageid
p358
I21496
sVtitle
p359
VNucleic acid
p360
sVtimestamp
p361
V2004-03-05T07:46:11Z
p362
sVtags
p363
(lp364
sVuserid
p365
I7488
sVrevid
p366
I2636857
sVuser
p367
V168...
p368
sVparentid
p369
I2635222
sVns
p370
I0
sVsize
p371
I2752
sa(dp372
Vcomment
p373
VReverted edits by David spector to last version by Dante Alighieri
p374
sVsizediff
p375
I-7
sVpageid
p376
I235968
sVtitle
p377
VHydrogenation
p378
sVtimestamp
p379
V2004-03-03T07:38:25Z
p380
sVtags
p381
(lp382
sVuserid
p383
I7488
sVrevid
p384
I3142984
sVuser
p385
V168...
p386
sVparentid
p387
I2608320
sVns
p388
I0
sVsize
p389
I1344
sa(dp390
Vcomment
p391
g7
sVsizediff
p392
I671
sVpageid
p393
I1051902
sVtitle
p394
VWikipedia talk:Community portal
p395
sVtimestamp
p396
V2004-02-29T02:00:39Z
p397
sVtags
p398
(lp399
sVuserid
p400
I7488
sVrevid
p401
I2566718
sVuser
p402
V168...
p403
sVparentid
p404
I2566401
sVns
p405
I5
sVsize
p406
I45500
sa(dp407
Vcomment
p408
g7
sVsizediff
p409
I931
sVpageid
p410
I1051902
sVtitle
p411
VWikipedia talk:Community portal
p412
sVtimestamp
p413
V2004-02-27T23:55:40Z
p414
sVtags
p415
(lp416
sVuserid
p417
I7488
sVrevid
p418
I2554253
sVuser
p419
V168...
p420
sVparentid
p421
I2554221
sVns
p422
I5
sVsize
p423
I39104
sa(dp424
Vcomment
p425
VReverted edits by Michael Snow to last version by 168...
p426
sVsizediff
p427
I3
sVpageid
p428
I459568
sVtitle
p429
VWikipedia:Metadirectory
p430
sVtimestamp
p431
V2004-02-27T23:36:24Z
p432
sVtags
p433
(lp434
sVuserid
p435
I7488
sVrevid
p436
I3013909
sVuser
p437
V168...
p438
sVparentid
p439
I2554016
sVns
p440
I4
sVsize
p441
I36
sa(dp442
Vcomment
p443
VReverted edits by Michael Snow to last version by Eloquence
p444
sVsizediff
p445
I240
sVpageid
p446
I460099
sVtitle
p447
VWikipedia:Yellow Pages
p448
sVtimestamp
p449
V2004-02-27T23:36:15Z
p450
sVtags
p451
(lp452
sVuserid
p453
I7488
sVrevid
p454
I3013917
sVuser
p455
V168...
p456
sVparentid
p457
I2554013
sVns
p458
I4
sVsize
p459
I273
sa(dp460
Vcomment
p461
VReverted edits by Michael Snow to last version by DopefishJustin
p462
sVsizediff
p463
I73
sVpageid
p464
I64347
sVtitle
p465
VWikipedia:Image use policy
p466
sVtimestamp
p467
V2004-02-27T23:35:58Z
p468
sVtags
p469
(lp470
sVuserid
p471
I7488
sVrevid
p472
I2616189
sVuser
p473
V168...
p474
sVparentid
p475
I2554009
sVns
p476
I4
sVsize
p477
I14427
sa(dp478
Vcomment
p479
VReverted edits by Michael Snow to last version by Peak
p480
sVsizediff
p481
I78
sVpageid
p482
I392393
sVtitle
p483
VWikipedia:Protection policy
p484
sVtimestamp
p485
V2004-02-27T23:35:51Z
p486
sVtags
p487
(lp488
sVuserid
p489
I7488
sVrevid
p490
I2666252
sVuser
p491
V168...
p492
sVparentid
p493
I2554006
sVns
p494
I4
sVsize
p495
I4640
sa(dp496
Vcomment
p497
VReverted edits by Michael Snow to last version by Stevenj
p498
sVsizediff
p499
I36
sVpageid
p500
I49698
sVtitle
p501
VWikipedia:Citing sources
p502
sVtimestamp
p503
V2004-02-27T23:35:39Z
p504
sVtags
p505
(lp506
sVuserid
p507
I7488
sVrevid
p508
I3157458
sVuser
p509
V168...
p510
sVparentid
p511
I2554003
sVns
p512
I4
sVsize
p513
I5084
sa(dp514
Vcomment
p515
VReverted edits by Michael Snow to last version by Luis Dantas
p516
sVsizediff
p517
I72
sVpageid
p518
I17054975
sVtitle
p519
VWikipedia:Disambiguation
p520
sVtimestamp
p521
V2004-02-27T23:35:05Z
p522
sVtags
p523
(lp524
sVuserid
p525
I7488
sVrevid
p526
I2602153
sVuser
p527
V168...
p528
sVparentid
p529
I2553998
sVns
p530
I4
sVsize
p531
I14004
sa(dp532
Vcomment
p533
VReverted edits by Michael Snow to last version by Angela
p534
sVsizediff
p535
I78
sVpageid
p536
I30329918
sVtitle
p537
VWikipedia:Deletion policy
p538
sVtimestamp
p539
V2004-02-27T23:34:53Z
p540
sVtags
p541
(lp542
sVuserid
p543
I7488
sVrevid
p544
I2740055
sVuser
p545
V168...
p546
sVparentid
p547
I2553994
sVns
p548
I4
sVsize
p549
I11656
sass.