(dp0
S'Archtransit'
p1
(dp2
S'before_block'
p3
(lp4
(dp5
Vcomment
p6
V/* Comments and opinions */
p7
sVsizediff
p8
I225
sVpageid
p9
I5137507
sVtitle
p10
VWikipedia:Administrators' noticeboard/Incidents
p11
sVtimestamp
p12
V2008-02-18T22:22:24Z
p13
sVtags
p14
(lp15
sVuserid
p16
I4743891
sVrevid
p17
I192411333
sVuser
p18
VArchtransit
p19
sVparentid
p20
I192410453
sVns
p21
I4
sVsize
p22
I377180
sa(dp23
Vcomment
p24
V/* Mentorship and recent developments */
p25
sVsizediff
p26
I336
sVpageid
p27
I15593431
sVtitle
p28
VWikipedia:Requests for comment/Archtransit
p29
sVtimestamp
p30
V2008-02-18T21:31:25Z
p31
sVtags
p32
(lp33
sVuserid
p34
I4743891
sVrevid
p35
I192399153
sVuser
p36
VArchtransit
p37
sVparentid
p38
I192396559
sVns
p39
I4
sVsize
p40
I143286
sa(dp41
Vcomment
p42
V/* Comments and opinions */ Addhoc's name
p43
sVsizediff
p44
I317
sVpageid
p45
I5137507
sVtitle
p46
VWikipedia:Administrators' noticeboard/Incidents
p47
sVtimestamp
p48
V2008-02-18T18:39:54Z
p49
sVtags
p50
(lp51
sVuserid
p52
I4743891
sVrevid
p53
I192357090
sVuser
p54
VArchtransit
p55
sVparentid
p56
I192356448
sVns
p57
I4
sVsize
p58
I330568
sa(dp59
Vcomment
p60
V/* Comments and opinions */
p61
sVsizediff
p62
I467
sVpageid
p63
I5137507
sVtitle
p64
VWikipedia:Administrators' noticeboard/Incidents
p65
sVtimestamp
p66
V2008-02-18T18:37:17Z
p67
sVtags
p68
(lp69
sVuserid
p70
I4743891
sVrevid
p71
I192356448
sVuser
p72
VArchtransit
p73
sVparentid
p74
I192356413
sVns
p75
I4
sVsize
p76
I330251
sa(dp77
Vcomment
p78
V/* Comments and opinions */
p79
sVsizediff
p80
I620
sVpageid
p81
I5137507
sVtitle
p82
VWikipedia:Administrators' noticeboard/Incidents
p83
sVtimestamp
p84
V2008-02-18T18:33:26Z
p85
sVtags
p86
(lp87
sVuserid
p88
I4743891
sVrevid
p89
I192355506
sVuser
p90
VArchtransit
p91
sVparentid
p92
I192354827
sVns
p93
I4
sVsize
p94
I362345
sa(dp95
Vcomment
p96
V/* User:Bellwether BC seems to object to this unblock. */ new section
p97
sVsizediff
p98
I4046
sVpageid
p99
I5137507
sVtitle
p100
VWikipedia:Administrators' noticeboard/Incidents
p101
sVtimestamp
p102
V2008-02-18T18:14:28Z
p103
sVtags
p104
(lp105
sVuserid
p106
I4743891
sVrevid
p107
I192350879
sVuser
p108
VArchtransit
p109
sVparentid
p110
I192347869
sVns
p111
I4
sVsize
p112
I358147
sa(dp113
Vcomment
p114
V/* Usernames being blocked, is this according to policy? */ new section
p115
sVsizediff
p116
I679
sVpageid
p117
I5149102
sVtitle
p118
VWikipedia:Administrators' noticeboard
p119
sVtimestamp
p120
V2008-02-15T17:14:19Z
p121
sVtags
p122
(lp123
sVuserid
p124
I4743891
sVrevid
p125
I191676275
sVuser
p126
VArchtransit
p127
sVparentid
p128
I191675875
sVns
p129
I4
sVsize
p130
I260246
sa(dp131
Vcomment
p132
V/* Mentorship */
p133
sVsizediff
p134
I260
sVpageid
p135
I5137507
sVtitle
p136
VWikipedia:Administrators' noticeboard/Incidents
p137
sVtimestamp
p138
V2008-02-14T18:55:29Z
p139
sVtags
p140
(lp141
sVuserid
p142
I4743891
sVrevid
p143
I191472098
sVuser
p144
VArchtransit
p145
sVparentid
p146
I191471568
sVns
p147
I4
sVsize
p148
I362073
sa(dp149
Vcomment
p150
V/* User:Rohit tripathi60 */
p151
sVsizediff
p152
I1123
sVpageid
p153
I15751061
sVtitle
p154
VWikipedia:Suspected sock puppets/Rohit tripathi60
p155
sVtimestamp
p156
V2008-02-14T18:47:58Z
p157
sVtags
p158
(lp159
sVuserid
p160
I4743891
sVrevid
p161
I191470600
sVuser
p162
VArchtransit
p163
sVparentid
p164
I191433701
sVns
p165
I4
sVsize
p166
I3400
sa(dp167
Vcomment
p168
V/* Status reports */ it's true
p169
sVsizediff
p170
I102
sVpageid
p171
I15451849
sVtitle
p172
VUSA-193
p173
sVtimestamp
p174
V2008-02-14T17:25:07Z
p175
sVtags
p176
(lp177
sVuserid
p178
I4743891
sVrevid
p179
I191453229
sVuser
p180
VArchtransit
p181
sVparentid
p182
I191452421
sVns
p183
I0
sVsize
p184
I5610
sa(dp185
Vcomment
p186
V/* Requesting block review for User:Decoratrix */
p187
sVsizediff
p188
I551
sVpageid
p189
I5137507
sVtitle
p190
VWikipedia:Administrators' noticeboard/Incidents
p191
sVtimestamp
p192
V2008-02-14T17:00:50Z
p193
sVtags
p194
(lp195
sVuserid
p196
I4743891
sVrevid
p197
I191448430
sVuser
p198
VArchtransit
p199
sVparentid
p200
I191448223
sVns
p201
I4
sVsize
p202
I385060
sa(dp203
Vcomment
p204
V/* User:Deanrules */
p205
sVsizediff
p206
I751
sVpageid
p207
I15752161
sVtitle
p208
VWikipedia:Suspected sock puppets/Deanrules
p209
sVtimestamp
p210
V2008-02-14T16:50:10Z
p211
sVtags
p212
(lp213
sVuserid
p214
I4743891
sVrevid
p215
I191446325
sVuser
p216
VArchtransit
p217
sVparentid
p218
I191397494
sVns
p219
I4
sVsize
p220
I2977
sass.