(dp0
S'Cool3'
p1
(dp2
S'before_block'
p3
(lp4
(dp5
Vcomment
p6
VTightening copy and removing what appears to be a promotional link.
p7
sVsizediff
p8
I-1004
sVpageid
p9
I11839695
sVtitle
p10
VChicken meal
p11
sVtimestamp
p12
V2010-01-02T05:54:32Z
p13
sVtags
p14
(lp15
sVuserid
p16
I503782
sVrevid
p17
I335411258
sVuser
p18
VCool3
p19
sVparentid
p20
I329121799
sVns
p21
I0
sVsize
p22
I1809
sa(dp23
Vcomment
p24
VCleaning up stub; removing BLP cruft that I couldn't substantiate independently
p25
sVsizediff
p26
I-40
sVpageid
p27
I25509812
sVtitle
p28
VCalifornia Club (casino)
p29
sVtimestamp
p30
V2010-01-02T05:42:01Z
p31
sVtags
p32
(lp33
sVuserid
p34
I503782
sVrevid
p35
I335409978
sVuser
p36
VCool3
p37
sVparentid
p38
I335406527
sVns
p39
I0
sVsize
p40
I1062
sa(dp41
Vcomment
p42
Vmoved [[California club casino las vegas]] to [[California Club (casino)]]: WP:NAME
p43
sVsizediff
p44
I38
sVpageid
p45
I25651310
sVtitle
p46
VCalifornia club casino las vegas
p47
sVtimestamp
p48
V2010-01-02T05:08:29Z
p49
sVtags
p50
(lp51
sVuserid
p52
I503782
sVrevid
p53
I335406529
sVuser
p54
VCool3
p55
sVparentid
p56
I0
sVns
p57
I0
sVsize
p58
I38
sa(dp59
Vcomment
p60
Vmoved [[California club casino las vegas]] to [[California Club (casino)]]: WP:NAME
p61
sVsizediff
p62
I0
sVpageid
p63
I25509812
sVtitle
p64
VCalifornia Club (casino)
p65
sVtimestamp
p66
V2010-01-02T05:08:29Z
p67
sVtags
p68
(lp69
sVuserid
p70
I503782
sVrevid
p71
I335406527
sVuser
p72
VCool3
p73
sVparentid
p74
I333055190
sVns
p75
I0
sVsize
p76
I1102
sa(dp77
Vcomment
p78
VKeep
p79
sVsizediff
p80
I647
sVpageid
p81
I25555902
sVtitle
p82
VWikipedia:Articles for deletion/Robertson v. McGraw-Hill Co., Weiss, and Shepard
p83
sVtimestamp
p84
V2009-12-27T05:31:50Z
p85
sVtags
p86
(lp87
sVuserid
p88
I503782
sVrevid
p89
I334210787
sVuser
p90
VCool3
p91
sVparentid
p92
I334201488
sVns
p93
I4
sVsize
p94
I15072
sa(dp95
Vcomment
p96
VThis is not the Ellen McCarthy you're looking for...
p97
sVsizediff
p98
I-4
sVpageid
p99
I12892644
sVtitle
p100
VVictor Berlin
p101
sVtimestamp
p102
V2009-12-20T02:11:37Z
p103
sVtags
p104
(lp105
sVuserid
p106
I503782
sVrevid
p107
I332781545
sVuser
p108
VCool3
p109
sVparentid
p110
I321755520
sVns
p111
I0
sVsize
p112
I4857
sa(dp113
Vcomment
p114
V/* External links */ Fixing link
p115
sVsizediff
p116
I-1
sVpageid
p117
I60121
sVtitle
p118
VOperation Fortitude
p119
sVtimestamp
p120
V2009-12-19T15:37:22Z
p121
sVtags
p122
(lp123
sVuserid
p124
I503782
sVrevid
p125
I332685643
sVuser
p126
VCool3
p127
sVparentid
p128
I330158311
sVns
p129
I0
sVsize
p130
I13581
sa(dp131
Vcomment
p132
VReverted to revision 329615802 by [[Special:Contributions/Jevansen|Jevansen]]; Reverting nonsense. ([[WP:TW|TW]])
p133
sVsizediff
p134
I-30
sVpageid
p135
I3707646
sVtitle
p136
VWedge
p137
sVtimestamp
p138
V2009-12-19T05:20:47Z
p139
sVtags
p140
(lp141
sVuserid
p142
I503782
sVrevid
p143
I332620116
sVuser
p144
VCool3
p145
sVparentid
p146
I332620005
sVns
p147
I0
sVsize
p148
I3060
sa(dp149
Vcomment
p150
VReverted 1 edit by [[Special:Contributions/71.108.231.11|71.108.231.11]]; Deleted content, AGF. ([[WP:TW|TW]])
p151
sVsizediff
p152
I1405
sVpageid
p153
I1164544
sVtitle
p154
VIdentity (film)
p155
sVtimestamp
p156
V2009-12-19T05:17:04Z
p157
sVtags
p158
(lp159
sVuserid
p160
I503782
sVrevid
p161
I332619698
sVuser
p162
VCool3
p163
sVparentid
p164
I332619617
sVns
p165
I0
sVsize
p166
I7543
sa(dp167
Vcomment
p168
V/* We, the undersigned, demand that Flagged revisions are rolled out without further delay */ 97
p169
sVsizediff
p170
I181
sVpageid
p171
I25467743
sVtitle
p172
VWikipedia:Flagged revisions petition
p173
sVtimestamp
p174
V2009-12-18T03:09:41Z
p175
sVtags
p176
(lp177
sVuserid
p178
I503782
sVrevid
p179
I332427182
sVuser
p180
VCool3
p181
sVparentid
p182
I332425375
sVns
p183
I4
sVsize
p184
I26410
sa(dp185
Vcomment
p186
V/* See also */ Adding MZMcBride's watcher tool
p187
sVsizediff
p188
I105
sVpageid
p189
I1002384
sVtitle
p190
VHelp:Watchlist
p191
sVtimestamp
p192
V2009-12-12T17:52:10Z
p193
sVtags
p194
(lp195
sVuserid
p196
I503782
sVrevid
p197
I331289551
sVuser
p198
VCool3
p199
sVparentid
p200
I330310144
sVns
p201
I12
sVsize
p202
I13949
sa(dp203
Vcomment
p204
V/* Retirement */ hyphen
p205
sVsizediff
p206
I0
sVpageid
p207
I23395008
sVtitle
p208
VDesmond Fitzpatrick
p209
sVtimestamp
p210
V2009-12-05T05:41:53Z
p211
sVtags
p212
(lp213
sVuserid
p214
I503782
sVrevid
p215
I329819313
sVuser
p216
VCool3
p217
sVparentid
p218
I324468786
sVns
p219
I0
sVsize
p220
I16388
sa(dp221
Vcomment
p222
VReverted [[WP:AGF|good faith]] edits by [[Special:Contributions/172.164.24.193|172.164.24.193]]; Question marks make the link fail.  Discuss on Talk page if you wish to modify listing.. ([[WP:TW|TW]])
p223
sVsizediff
p224
I-5
sVpageid
p225
I23109687
sVtitle
p226
VList of United States criminals
p227
sVtimestamp
p228
V2009-11-27T03:10:40Z
p229
sVtags
p230
(lp231
sVuserid
p232
I503782
sVrevid
p233
I328144287
sVuser
p234
VCool3
p235
sVparentid
p236
I328143994
sVns
p237
I0
sVsize
p238
I22903
sa(dp239
Vcomment
p240
VChecked secondary texts, and they do not carry these misspellings.
p241
sVsizediff
p242
I0
sVpageid
p243
I374626
sVtitle
p244
VEdith Tolkien
p245
sVtimestamp
p246
V2009-11-23T11:49:24Z
p247
sVtags
p248
(lp249
sVuserid
p250
I503782
sVrevid
p251
I327460104
sVuser
p252
VCool3
p253
sVparentid
p254
I326750622
sVns
p255
I0
sVsize
p256
I13553
sa(dp257
Vcomment
p258
V/* Overview */ the term aid is deeply misleading and out of keeping with the judgement which stated "The Act impermissibly endorses religion"; endorsement is the word typically used in legal contexts
p259
sVsizediff
p260
I10
sVpageid
p261
I15295
sVtitle
p262
VIntelligent design
p263
sVtimestamp
p264
V2009-09-26T18:26:28Z
p265
sVtags
p266
(lp267
sVuserid
p268
I503782
sVrevid
p269
I316344154
sVuser
p270
VCool3
p271
sVparentid
p272
I316306011
sVns
p273
I0
sVsize
p274
I181351
sa(dp275
Vcomment
p276
V/* Administrators */ add cool3
p277
sVsizediff
p278
I17
sVpageid
p279
I16067717
sVtitle
p280
VWikipedia:WikiProject Military history/Logistics
p281
sVtimestamp
p282
V2009-09-26T16:56:36Z
p283
sVtags
p284
(lp285
sVuserid
p286
I503782
sVrevid
p287
I316331291
sVuser
p288
VCool3
p289
sVparentid
p290
I316316444
sVns
p291
I4
sVsize
p292
I23135
sa(dp293
Vcomment
p294
V/* Support */ adminship is no big deal
p295
sVsizediff
p296
I122
sVpageid
p297
I24477034
sVtitle
p298
VWikipedia:Requests for adminship/Gaelen S. 2
p299
sVtimestamp
p300
V2009-09-26T16:55:04Z
p301
sVtags
p302
(lp303
sVuserid
p304
I503782
sVrevid
p305
I316331044
sVuser
p306
VCool3
p307
sVparentid
p308
I316331001
sVns
p309
I4
sVsize
p310
I12594
sa(dp311
Vcomment
p312
V/* References */ replace <references /> with reflist
p313
sVsizediff
p314
I-2
sVpageid
p315
I614534
sVtitle
p316
VBirth order
p317
sVtimestamp
p318
V2009-09-26T15:27:10Z
p319
sVtags
p320
(lp321
sVuserid
p322
I503782
sVrevid
p323
I316318216
sVuser
p324
VCool3
p325
sVparentid
p326
I306846053
sVns
p327
I0
sVsize
p328
I14736
sa(dp329
Vcomment
p330
V/* Support */ support
p331
sVsizediff
p332
I249
sVpageid
p333
I24291613
sVtitle
p334
VWikipedia:Requests for adminship/A new name 2008
p335
sVtimestamp
p336
V2009-09-17T02:47:58Z
p337
sVtags
p338
(lp339
sVuserid
p340
I503782
sVrevid
p341
I314466428
sVuser
p342
VCool3
p343
sVparentid
p344
I314463880
sVns
p345
I4
sVsize
p346
I142542
sa(dp347
Vcomment
p348
V/* Radical suggestion against vandalism */ what's the harm in a one week trial?
p349
sVsizediff
p350
I574
sVpageid
p351
I3706897
sVtitle
p352
VWikipedia:Village pump (proposals)
p353
sVtimestamp
p354
V2009-09-16T16:32:46Z
p355
sVtags
p356
(lp357
sVuserid
p358
I503782
sVrevid
p359
I314367776
sVuser
p360
VCool3
p361
sVparentid
p362
I314366423
sVns
p363
I4
sVsize
p364
I315310
sa(dp365
Vcomment
p366
V/* Success Rate of RfA */ an idea for a bot to identify potential admin candidates we may not know
p367
sVsizediff
p368
I635
sVpageid
p369
I2609426
sVtitle
p370
VWikipedia talk:Requests for adminship
p371
sVtimestamp
p372
V2009-09-15T00:40:41Z
p373
sVtags
p374
(lp375
sVuserid
p376
I503782
sVrevid
p377
I314004814
sVuser
p378
VCool3
p379
sVparentid
p380
I313996115
sVns
p381
I5
sVsize
p382
I152107
sa(dp383
Vcomment
p384
V/* Timeline of events */ I think you should really be looking in early 2007
p385
sVsizediff
p386
I731
sVpageid
p387
I2609426
sVtitle
p388
VWikipedia talk:Requests for adminship
p389
sVtimestamp
p390
V2009-09-14T19:53:49Z
p391
sVtags
p392
(lp393
sVuserid
p394
I503782
sVrevid
p395
I313946862
sVuser
p396
VCool3
p397
sVparentid
p398
I313946840
sVns
p399
I5
sVsize
p400
I134807
sa(dp401
Vcomment
p402
V/* Success Rate of RfA */ response to dank
p403
sVsizediff
p404
I984
sVpageid
p405
I2609426
sVtitle
p406
VWikipedia talk:Requests for adminship
p407
sVtimestamp
p408
V2009-09-14T19:38:04Z
p409
sVtags
p410
(lp411
sVuserid
p412
I503782
sVrevid
p413
I313943649
sVuser
p414
VCool3
p415
sVparentid
p416
I313943631
sVns
p417
I5
sVsize
p418
I132046
sa(dp419
Vcomment
p420
V/* Success Rate of RfA */ new section
p421
sVsizediff
p422
I2234
sVpageid
p423
I2609426
sVtitle
p424
VWikipedia talk:Requests for adminship
p425
sVtimestamp
p426
V2009-09-14T19:06:37Z
p427
sVtags
p428
(lp429
sVuserid
p430
I503782
sVrevid
p431
I313937470
sVuser
p432
VCool3
p433
sVparentid
p434
I313937025
sVns
p435
I5
sVsize
p436
I120075
sa(dp437
Vcomment
p438
V/* Another graph */ typo... oops
p439
sVsizediff
p440
I0
sVpageid
p441
I2609426
sVtitle
p442
VWikipedia talk:Requests for adminship
p443
sVtimestamp
p444
V2009-09-14T18:27:09Z
p445
sVtags
p446
(lp447
sVuserid
p448
I503782
sVrevid
p449
I313926511
sVuser
p450
VCool3
p451
sVparentid
p452
I313923253
sVns
p453
I5
sVsize
p454
I116974
sa(dp455
Vcomment
p456
V/* Another way to look at it */ my graph
p457
sVsizediff
p458
I1180
sVpageid
p459
I2609426
sVtitle
p460
VWikipedia talk:Requests for adminship
p461
sVtimestamp
p462
V2009-09-14T17:45:34Z
p463
sVtags
p464
(lp465
sVuserid
p466
I503782
sVrevid
p467
I313913863
sVuser
p468
VCool3
p469
sVparentid
p470
I313908264
sVns
p471
I5
sVsize
p472
I115476
sa(dp473
Vcomment
p474
V/* Another way to look at it */ monthly figures I don't know about daily ones
p475
sVsizediff
p476
I254
sVpageid
p477
I2609426
sVtitle
p478
VWikipedia talk:Requests for adminship
p479
sVtimestamp
p480
V2009-09-14T16:01:43Z
p481
sVtags
p482
(lp483
sVuserid
p484
I503782
sVrevid
p485
I313883368
sVuser
p486
VCool3
p487
sVparentid
p488
I313857185
sVns
p489
I5
sVsize
p490
I111651
sa(dp491
Vcomment
p492
V/* Another way to look at it */ fix signature
p493
sVsizediff
p494
I48
sVpageid
p495
I2609426
sVtitle
p496
VWikipedia talk:Requests for adminship
p497
sVtimestamp
p498
V2009-09-14T02:52:24Z
p499
sVtags
p500
(lp501
sVuserid
p502
I503782
sVrevid
p503
I313720502
sVuser
p504
VCool3
p505
sVparentid
p506
I313720401
sVns
p507
I5
sVsize
p508
I106037
sa(dp509
Vcomment
p510
V/* Another way to look at it */ great graph; a few qs
p511
sVsizediff
p512
I551
sVpageid
p513
I2609426
sVtitle
p514
VWikipedia talk:Requests for adminship
p515
sVtimestamp
p516
V2009-09-14T02:51:38Z
p517
sVtags
p518
(lp519
sVuserid
p520
I503782
sVrevid
p521
I313720401
sVuser
p522
VCool3
p523
sVparentid
p524
I313720334
sVns
p525
I5
sVsize
p526
I105989
sa(dp527
Vcomment
p528
V/* Main page feature suggestion */ the whole reader editor thing
p529
sVsizediff
p530
I147
sVpageid
p531
I3706897
sVtitle
p532
VWikipedia:Village pump (proposals)
p533
sVtimestamp
p534
V2009-09-13T22:37:29Z
p535
sVtags
p536
(lp537
sVuserid
p538
I503782
sVrevid
p539
I313672255
sVuser
p540
VCool3
p541
sVparentid
p542
I313671215
sVns
p543
I4
sVsize
p544
I334352
sa(dp545
Vcomment
p546
V/* Main page feature suggestion */ a bit premature
p547
sVsizediff
p548
I303
sVpageid
p549
I3706897
sVtitle
p550
VWikipedia:Village pump (proposals)
p551
sVtimestamp
p552
V2009-09-13T21:29:38Z
p553
sVtags
p554
(lp555
sVuserid
p556
I503782
sVrevid
p557
I313657068
sVuser
p558
VCool3
p559
sVparentid
p560
I313649512
sVns
p561
I4
sVsize
p562
I328475
sa(dp563
Vcomment
p564
V/* Main page feature suggestion */ what about limiting it to top or high importance articles
p565
sVsizediff
p566
I452
sVpageid
p567
I3706897
sVtitle
p568
VWikipedia:Village pump (proposals)
p569
sVtimestamp
p570
V2009-09-13T20:33:35Z
p571
sVtags
p572
(lp573
sVuserid
p574
I503782
sVrevid
p575
I313641815
sVuser
p576
VCool3
p577
sVparentid
p578
I313641350
sVns
p579
I4
sVsize
p580
I325636
sa(dp581
Vcomment
p582
V/* Main page feature suggestion */ support strongly
p583
sVsizediff
p584
I330
sVpageid
p585
I3706897
sVtitle
p586
VWikipedia:Village pump (proposals)
p587
sVtimestamp
p588
V2009-09-13T20:18:02Z
p589
sVtags
p590
(lp591
sVuserid
p592
I503782
sVrevid
p593
I313638759
sVuser
p594
VCool3
p595
sVparentid
p596
I313637801
sVns
p597
I4
sVsize
p598
I323502
sa(dp599
Vcomment
p600
V/* Scope of this project */ response in response to request for feedback
p601
sVsizediff
p602
I306
sVpageid
p603
I2178201
sVtitle
p604
VWikipedia talk:WikiProject Chicago
p605
sVtimestamp
p606
V2009-09-13T03:34:58Z
p607
sVtags
p608
(lp609
sVuserid
p610
I503782
sVrevid
p611
I313499745
sVuser
p612
VCool3
p613
sVparentid
p614
I313209350
sVns
p615
I5
sVsize
p616
I35821
sa(dp617
Vcomment
p618
Vclosing discussion result was delete
p619
sVsizediff
p620
I1369
sVpageid
p621
I24237840
sVtitle
p622
VWikipedia:Articles for deletion/Iranites
p623
sVtimestamp
p624
V2009-09-13T03:14:45Z
p625
sVtags
p626
(lp627
sVuserid
p628
I503782
sVrevid
p629
I313497205
sVuser
p630
VCool3
p631
sVparentid
p632
I312654246
sVns
p633
I4
sVsize
p634
I5179
sa(dp635
Vcomment
p636
V/* Comments and questions for Cool3 */ response
p637
sVsizediff
p638
I1083
sVpageid
p639
I24206205
sVtitle
p640
VWikipedia:WikiProject Military history/Coordinators/September 2009
p641
sVtimestamp
p642
V2009-09-13T03:07:11Z
p643
sVtags
p644
(lp645
sVuserid
p646
I503782
sVrevid
p647
I313496062
sVuser
p648
VCool3
p649
sVparentid
p650
I313495931
sVns
p651
I4
sVsize
p652
I46964
sa(dp653
Vcomment
p654
V/* Comments and questions for Name */ answers
p655
sVsizediff
p656
I767
sVpageid
p657
I24206205
sVtitle
p658
VWikipedia:WikiProject Military history/Coordinators/September 2009
p659
sVtimestamp
p660
V2009-09-13T00:13:21Z
p661
sVtags
p662
(lp663
sVuserid
p664
I503782
sVrevid
p665
I313470674
sVuser
p666
VCool3
p667
sVparentid
p668
I313470141
sVns
p669
I4
sVsize
p670
I42867
sa(dp671
Vcomment
p672
V/* Votes in support of Woody */ getting in under the wire
p673
sVsizediff
p674
I696
sVpageid
p675
I24206205
sVtitle
p676
VWikipedia:WikiProject Military history/Coordinators/September 2009
p677
sVtimestamp
p678
V2009-09-13T00:09:58Z
p679
sVtags
p680
(lp681
sVuserid
p682
I503782
sVrevid
p683
I313470141
sVuser
p684
VCool3
p685
sVparentid
p686
I313436300
sVns
p687
I4
sVsize
p688
I42100
sa(dp689
Vcomment
p690
V/* Questions for the candidate */ add optional question
p691
sVsizediff
p692
I147
sVpageid
p693
I24215873
sVtitle
p694
VWikipedia:Requests for bureaucratship/Xeno
p695
sVtimestamp
p696
V2009-09-06T04:01:35Z
p697
sVtags
p698
(lp699
sVuserid
p700
I503782
sVrevid
p701
I312125687
sVuser
p702
VCool3
p703
sVparentid
p704
I312125525
sVns
p705
I4
sVsize
p706
I102570
sass.