(dp0
S'DangerousPanda'
p1
(dp2
S'before_block'
p3
(lp4
(dp5
Vcomment
p6
V/* This was unexpected */ really picking at nits
p7
sVsizediff
p8
I410
sVpageid
p9
I44445439
sVtitle
p10
VWikipedia talk:Arbitration/Requests/Case/DangerousPanda/Proposed decision
p11
sVtimestamp
p12
V2014-12-25T11:38:28Z
p13
sVtags
p14
(lp15
sVuserid
p16
I1077292
sVrevid
p17
I639576421
sVuser
p18
VDangerousPanda
p19
sVparentid
p20
I639576317
sVns
p21
I5
sVsize
p22
I140866
sa(dp23
Vcomment
p24
V/* Is this due process or a farce? */ you missed the point
p25
sVsizediff
p26
I465
sVpageid
p27
I44445439
sVtitle
p28
VWikipedia talk:Arbitration/Requests/Case/DangerousPanda/Proposed decision
p29
sVtimestamp
p30
V2014-12-25T11:36:31Z
p31
sVtags
p32
(lp33
sVuserid
p34
I1077292
sVrevid
p35
I639576317
sVuser
p36
VDangerousPanda
p37
sVparentid
p38
I639574254
sVns
p39
I5
sVsize
p40
I140456
sa(dp41
Vcomment
p42
VReverted [[WP:AGF|good faith]] edits by [[Special:Contributions/86.47.67.198|86.47.67.198]] ([[User talk:86.47.67.198|talk]]): Remove non-notable artist (no article). ([[WP:TW|TW]])
p43
sVsizediff
p44
I-15
sVpageid
p45
I5760376
sVtitle
p46
VList of Nigerian rappers
p47
sVtimestamp
p48
V2014-12-24T22:33:15Z
p49
sVtags
p50
(lp51
sVuserid
p52
I1077292
sVrevid
p53
I639520990
sVuser
p54
VDangerousPanda
p55
sVparentid
p56
I639520828
sVns
p57
I0
sVsize
p58
I1852
sa(dp59
Vcomment
p60
V/* Is this due process or a farce? */ hypocrisy
p61
sVsizediff
p62
I517
sVpageid
p63
I44445439
sVtitle
p64
VWikipedia talk:Arbitration/Requests/Case/DangerousPanda/Proposed decision
p65
sVtimestamp
p66
V2014-12-24T22:23:10Z
p67
sVtags
p68
(lp69
sVuserid
p70
I1077292
sVrevid
p71
I639520246
sVuser
p72
VDangerousPanda
p73
sVparentid
p74
I639519363
sVns
p75
I5
sVsize
p76
I136067
sa(dp77
Vcomment
p78
V/* Is this due process or a farce? */ obvious
p79
sVsizediff
p80
I376
sVpageid
p81
I44445439
sVtitle
p82
VWikipedia talk:Arbitration/Requests/Case/DangerousPanda/Proposed decision
p83
sVtimestamp
p84
V2014-12-24T20:30:19Z
p85
sVtags
p86
(lp87
sVuserid
p88
I1077292
sVrevid
p89
I639510192
sVuser
p90
VDangerousPanda
p91
sVparentid
p92
I639509985
sVns
p93
I5
sVsize
p94
I128830
sa(dp95
Vcomment
p96
V/* Is this due process or a farce? */ god forbid ethics enter into the situation
p97
sVsizediff
p98
I1254
sVpageid
p99
I44445439
sVtitle
p100
VWikipedia talk:Arbitration/Requests/Case/DangerousPanda/Proposed decision
p101
sVtimestamp
p102
V2014-12-24T20:28:23Z
p103
sVtags
p104
(lp105
sVuserid
p106
I1077292
sVrevid
p107
I639509985
sVuser
p108
VDangerousPanda
p109
sVparentid
p110
I639509617
sVns
p111
I5
sVsize
p112
I128454
sa(dp113
Vcomment
p114
V/* Is this due process or a farce? */ I did
p115
sVsizediff
p116
I842
sVpageid
p117
I44445439
sVtitle
p118
VWikipedia talk:Arbitration/Requests/Case/DangerousPanda/Proposed decision
p119
sVtimestamp
p120
V2014-12-24T18:59:45Z
p121
sVtags
p122
(lp123
sVuserid
p124
I1077292
sVrevid
p125
I639501774
sVuser
p126
VDangerousPanda
p127
sVparentid
p128
I639501412
sVns
p129
I5
sVsize
p130
I124212
sa(dp131
Vcomment
p132
V/* Is this due process or a farce? */ no such sanction
p133
sVsizediff
p134
I311
sVpageid
p135
I44445439
sVtitle
p136
VWikipedia talk:Arbitration/Requests/Case/DangerousPanda/Proposed decision
p137
sVtimestamp
p138
V2014-12-24T18:38:02Z
p139
sVtags
p140
(lp141
sVuserid
p142
I1077292
sVrevid
p143
I639499531
sVuser
p144
VDangerousPanda
p145
sVparentid
p146
I639499228
sVns
p147
I5
sVsize
p148
I122881
sa(dp149
Vcomment
p150
V/* Is this due process or a farce? */ sp
p151
sVsizediff
p152
I0
sVpageid
p153
I44445439
sVtitle
p154
VWikipedia talk:Arbitration/Requests/Case/DangerousPanda/Proposed decision
p155
sVtimestamp
p156
V2014-12-24T18:35:15Z
p157
sVtags
p158
(lp159
sVuserid
p160
I1077292
sVrevid
p161
I639499228
sVuser
p162
VDangerousPanda
p163
sVparentid
p164
I639499185
sVns
p165
I5
sVsize
p166
I122570
sa(dp167
Vcomment
p168
V/* Is this due process or a farce? */ no, YOU seem to be under a misapprehension
p169
sVsizediff
p170
I561
sVpageid
p171
I44445439
sVtitle
p172
VWikipedia talk:Arbitration/Requests/Case/DangerousPanda/Proposed decision
p173
sVtimestamp
p174
V2014-12-24T18:34:57Z
p175
sVtags
p176
(lp177
sVuserid
p178
I1077292
sVrevid
p179
I639499185
sVuser
p180
VDangerousPanda
p181
sVparentid
p182
I639498546
sVns
p183
I5
sVsize
p184
I122570
sa(dp185
Vcomment
p186
V/* Update */ false
p187
sVsizediff
p188
I399
sVpageid
p189
I44445439
sVtitle
p190
VWikipedia talk:Arbitration/Requests/Case/DangerousPanda/Proposed decision
p191
sVtimestamp
p192
V2014-12-24T17:46:44Z
p193
sVtags
p194
(lp195
sVuserid
p196
I1077292
sVrevid
p197
I639494354
sVuser
p198
VDangerousPanda
p199
sVparentid
p200
I639494245
sVns
p201
I5
sVsize
p202
I120526
sa(dp203
Vcomment
p204
V/* Is this due process or a farce? */ reply x2
p205
sVsizediff
p206
I1261
sVpageid
p207
I44445439
sVtitle
p208
VWikipedia talk:Arbitration/Requests/Case/DangerousPanda/Proposed decision
p209
sVtimestamp
p210
V2014-12-24T17:45:30Z
p211
sVtags
p212
(lp213
sVuserid
p214
I1077292
sVrevid
p215
I639494245
sVuser
p216
VDangerousPanda
p217
sVparentid
p218
I639494017
sVns
p219
I5
sVsize
p220
I120127
sa(dp221
Vcomment
p222
V/* Is this due process or a farce? */ new section
p223
sVsizediff
p224
I616
sVpageid
p225
I44445439
sVtitle
p226
VWikipedia talk:Arbitration/Requests/Case/DangerousPanda/Proposed decision
p227
sVtimestamp
p228
V2014-12-24T10:21:47Z
p229
sVtags
p230
(lp231
sVuserid
p232
I1077292
sVrevid
p233
I639456482
sVuser
p234
VDangerousPanda
p235
sVparentid
p236
I639436895
sVns
p237
I5
sVsize
p238
I110318
sa(dp239
Vcomment
p240
V/* Proposed topic ban of Martin Hogbin */ +cmt
p241
sVsizediff
p242
I748
sVpageid
p243
I5137507
sVtitle
p244
VWikipedia:Administrators' noticeboard/Incidents
p245
sVtimestamp
p246
V2014-12-23T23:09:37Z
p247
sVtags
p248
(lp249
sVuserid
p250
I1077292
sVrevid
p251
I639400229
sVuser
p252
VDangerousPanda
p253
sVparentid
p254
I639399412
sVns
p255
I4
sVsize
p256
I555854
sa(dp257
Vcomment
p258
V/* Flaw in proposed decision */ bah @indent
p259
sVsizediff
p260
I-1
sVpageid
p261
I44445439
sVtitle
p262
VWikipedia talk:Arbitration/Requests/Case/DangerousPanda/Proposed decision
p263
sVtimestamp
p264
V2014-12-23T16:34:59Z
p265
sVtags
p266
(lp267
sVuserid
p268
I1077292
sVrevid
p269
I639355613
sVuser
p270
VDangerousPanda
p271
sVparentid
p272
I639355549
sVns
p273
I5
sVsize
p274
I98103
sa(dp275
Vcomment
p276
V/* Flaw in proposed decision */ and the flaw
p277
sVsizediff
p278
I2580
sVpageid
p279
I44445439
sVtitle
p280
VWikipedia talk:Arbitration/Requests/Case/DangerousPanda/Proposed decision
p281
sVtimestamp
p282
V2014-12-23T16:34:35Z
p283
sVtags
p284
(lp285
sVuserid
p286
I1077292
sVrevid
p287
I639355549
sVuser
p288
VDangerousPanda
p289
sVparentid
p290
I639350931
sVns
p291
I5
sVsize
p292
I98104
sa(dp293
Vcomment
p294
V/* Ok, so where am I supposed to respond */ fix indent
p295
sVsizediff
p296
I1
sVpageid
p297
I44445439
sVtitle
p298
VWikipedia talk:Arbitration/Requests/Case/DangerousPanda/Proposed decision
p299
sVtimestamp
p300
V2014-12-22T20:11:36Z
p301
sVtags
p302
(lp303
sVuserid
p304
I1077292
sVrevid
p305
I639230434
sVuser
p306
VDangerousPanda
p307
sVparentid
p308
I639230389
sVns
p309
I5
sVsize
p310
I56656
sa(dp311
Vcomment
p312
V/* Ok, so where am I supposed to respond */ merry Christmas
p313
sVsizediff
p314
I641
sVpageid
p315
I44445439
sVtitle
p316
VWikipedia talk:Arbitration/Requests/Case/DangerousPanda/Proposed decision
p317
sVtimestamp
p318
V2014-12-22T20:11:11Z
p319
sVtags
p320
(lp321
sVuserid
p322
I1077292
sVrevid
p323
I639230389
sVuser
p324
VDangerousPanda
p325
sVparentid
p326
I639229814
sVns
p327
I5
sVsize
p328
I56655
sa(dp329
Vcomment
p330
V/* Ok, so where am I supposed to respond */ reply
p331
sVsizediff
p332
I3976
sVpageid
p333
I44445439
sVtitle
p334
VWikipedia talk:Arbitration/Requests/Case/DangerousPanda/Proposed decision
p335
sVtimestamp
p336
V2014-12-22T20:05:35Z
p337
sVtags
p338
(lp339
sVuserid
p340
I1077292
sVrevid
p341
I639229750
sVuser
p342
VDangerousPanda
p343
sVparentid
p344
I639226207
sVns
p345
I5
sVsize
p346
I56004
sa(dp347
Vcomment
p348
V/* Ok, so where am I supposed to respond */ wrong ital
p349
sVsizediff
p350
I-2
sVpageid
p351
I44445439
sVtitle
p352
VWikipedia talk:Arbitration/Requests/Case/DangerousPanda/Proposed decision
p353
sVtimestamp
p354
V2014-12-22T14:50:24Z
p355
sVtags
p356
(lp357
sVuserid
p358
I1077292
sVrevid
p359
I639192912
sVuser
p360
VDangerousPanda
p361
sVparentid
p362
I639192504
sVns
p363
I5
sVsize
p364
I41604
sa(dp365
Vcomment
p366
V/* Ok, so where am I supposed to respond */ whuh?  You're not seriously, of course
p367
sVsizediff
p368
I728
sVpageid
p369
I44445439
sVtitle
p370
VWikipedia talk:Arbitration/Requests/Case/DangerousPanda/Proposed decision
p371
sVtimestamp
p372
V2014-12-22T14:47:03Z
p373
sVtags
p374
(lp375
sVuserid
p376
I1077292
sVrevid
p377
I639192504
sVuser
p378
VDangerousPanda
p379
sVparentid
p380
I639190986
sVns
p381
I5
sVsize
p382
I41606
sa(dp383
Vcomment
p384
V/* Ok, so where am I supposed to respond */ +rply
p385
sVsizediff
p386
I1130
sVpageid
p387
I44445439
sVtitle
p388
VWikipedia talk:Arbitration/Requests/Case/DangerousPanda/Proposed decision
p389
sVtimestamp
p390
V2014-12-22T14:31:14Z
p391
sVtags
p392
(lp393
sVuserid
p394
I1077292
sVrevid
p395
I639190825
sVuser
p396
VDangerousPanda
p397
sVparentid
p398
I639189096
sVns
p399
I5
sVsize
p400
I40649
sa(dp401
Vcomment
p402
V/* Ok, so where am I supposed to respond */ add
p403
sVsizediff
p404
I224
sVpageid
p405
I44445439
sVtitle
p406
VWikipedia talk:Arbitration/Requests/Case/DangerousPanda/Proposed decision
p407
sVtimestamp
p408
V2014-12-22T13:33:58Z
p409
sVtags
p410
(lp411
sVuserid
p412
I1077292
sVrevid
p413
I639185326
sVuser
p414
VDangerousPanda
p415
sVparentid
p416
I639185235
sVns
p417
I5
sVsize
p418
I37822
sa(dp419
Vcomment
p420
V/* Ok, so where am I supposed to respond */ odd - this statement is contrary to ArbCom principles
p421
sVsizediff
p422
I1025
sVpageid
p423
I44445439
sVtitle
p424
VWikipedia talk:Arbitration/Requests/Case/DangerousPanda/Proposed decision
p425
sVtimestamp
p426
V2014-12-22T13:29:31Z
p427
sVtags
p428
(lp429
sVuserid
p430
I1077292
sVrevid
p431
I639184917
sVuser
p432
VDangerousPanda
p433
sVparentid
p434
I639184466
sVns
p435
I5
sVsize
p436
I37276
sass.