(dp0
S'Eyrian'
p1
(dp2
S'before_block'
p3
(lp4
(dp5
Vcomment
p6
V/* Block review */ grammar
p7
sVsizediff
p8
I-237
sVpageid
p9
I5137507
sVtitle
p10
VWikipedia:Administrators' noticeboard/Incidents
p11
sVtimestamp
p12
V2007-10-28T10:17:57Z
p13
sVtags
p14
(lp15
sVuserid
p16
I80802
sVrevid
p17
I167604052
sVuser
p18
VEyrian
p19
sVparentid
p20
I167603998
sVns
p21
I4
sVsize
p22
I164782
sa(dp23
Vcomment
p24
V/* Block review */ typo
p25
sVsizediff
p26
I0
sVpageid
p27
I5137507
sVtitle
p28
VWikipedia:Administrators' noticeboard/Incidents
p29
sVtimestamp
p30
V2007-10-28T10:17:28Z
p31
sVtags
p32
(lp33
sVuserid
p34
I80802
sVrevid
p35
I167603998
sVuser
p36
VEyrian
p37
sVparentid
p38
I167603912
sVns
p39
I4
sVsize
p40
I165019
sa(dp41
Vcomment
p42
V/* Block review */ reply
p43
sVsizediff
p44
I290
sVpageid
p45
I5137507
sVtitle
p46
VWikipedia:Administrators' noticeboard/Incidents
p47
sVtimestamp
p48
V2007-10-28T10:16:37Z
p49
sVtags
p50
(lp51
sVuserid
p52
I80802
sVrevid
p53
I167603902
sVuser
p54
VEyrian
p55
sVparentid
p56
I167603739
sVns
p57
I4
sVsize
p58
I164778
sa(dp59
Vcomment
p60
V/* Block review */ reply
p61
sVsizediff
p62
I394
sVpageid
p63
I5137507
sVtitle
p64
VWikipedia:Administrators' noticeboard/Incidents
p65
sVtimestamp
p66
V2007-10-28T10:08:46Z
p67
sVtags
p68
(lp69
sVuserid
p70
I80802
sVrevid
p71
I167603149
sVuser
p72
VEyrian
p73
sVparentid
p74
I167602879
sVns
p75
I4
sVsize
p76
I162866
sa(dp77
Vcomment
p78
V/* Block review */ typo
p79
sVsizediff
p80
I-1
sVpageid
p81
I5137507
sVtitle
p82
VWikipedia:Administrators' noticeboard/Incidents
p83
sVtimestamp
p84
V2007-10-28T09:55:08Z
p85
sVtags
p86
(lp87
sVuserid
p88
I80802
sVrevid
p89
I167601915
sVuser
p90
VEyrian
p91
sVparentid
p92
I167601846
sVns
p93
I4
sVsize
p94
I161129
sa(dp95
Vcomment
p96
V/* Block review */ further
p97
sVsizediff
p98
I553
sVpageid
p99
I5137507
sVtitle
p100
VWikipedia:Administrators' noticeboard/Incidents
p101
sVtimestamp
p102
V2007-10-28T09:52:10Z
p103
sVtags
p104
(lp105
sVuserid
p106
I80802
sVrevid
p107
I167601600
sVuser
p108
VEyrian
p109
sVparentid
p110
I167601378
sVns
p111
I4
sVsize
p112
I160391
sa(dp113
Vcomment
p114
V/* Block review */ reply
p115
sVsizediff
p116
I183
sVpageid
p117
I5137507
sVtitle
p118
VWikipedia:Administrators' noticeboard/Incidents
p119
sVtimestamp
p120
V2007-10-28T09:45:43Z
p121
sVtags
p122
(lp123
sVuserid
p124
I80802
sVrevid
p125
I167601025
sVuser
p126
VEyrian
p127
sVparentid
p128
I167600747
sVns
p129
I4
sVsize
p130
I158829
sa(dp131
Vcomment
p132
V/* Block review */ reply
p133
sVsizediff
p134
I423
sVpageid
p135
I5137507
sVtitle
p136
VWikipedia:Administrators' noticeboard/Incidents
p137
sVtimestamp
p138
V2007-10-28T09:38:52Z
p139
sVtags
p140
(lp141
sVuserid
p142
I80802
sVrevid
p143
I167600404
sVuser
p144
VEyrian
p145
sVparentid
p146
I167599775
sVns
p147
I4
sVsize
p148
I157974
sa(dp149
Vcomment
p150
VRestore image
p151
sVsizediff
p152
I-51
sVpageid
p153
I183015
sVtitle
p154
VAmerican Israel Public Affairs Committee
p155
sVtimestamp
p156
V2007-10-28T09:35:22Z
p157
sVtags
p158
(lp159
sVuserid
p160
I80802
sVrevid
p161
I167600040
sVuser
p162
VEyrian
p163
sVparentid
p164
I166603378
sVns
p165
I0
sVsize
p166
I40864
sa(dp167
Vcomment
p168
V/* Block review */ clarify
p169
sVsizediff
p170
I29
sVpageid
p171
I5137507
sVtitle
p172
VWikipedia:Administrators' noticeboard/Incidents
p173
sVtimestamp
p174
V2007-10-28T09:28:44Z
p175
sVtags
p176
(lp177
sVuserid
p178
I80802
sVrevid
p179
I167599364
sVuser
p180
VEyrian
p181
sVparentid
p182
I167599078
sVns
p183
I4
sVsize
p184
I157078
sa(dp185
Vcomment
p186
V/* Block review */ new section
p187
sVsizediff
p188
I920
sVpageid
p189
I5137507
sVtitle
p190
VWikipedia:Administrators' noticeboard/Incidents
p191
sVtimestamp
p192
V2007-10-28T09:25:38Z
p193
sVtags
p194
(lp195
sVuserid
p196
I80802
sVrevid
p197
I167599078
sVuser
p198
VEyrian
p199
sVparentid
p200
I167598737
sVns
p201
I4
sVsize
p202
I157049
sa(dp203
Vcomment
p204
V/* Non-mainspace */
p205
sVsizediff
p206
I-34
sVpageid
p207
I12561329
sVtitle
p208
VWikipedia:Protected titles/August 2007/List
p209
sVtimestamp
p210
V2007-10-28T09:14:47Z
p211
sVtags
p212
(lp213
sVuserid
p214
I80802
sVrevid
p215
I167598027
sVuser
p216
VEyrian
p217
sVparentid
p218
I167489048
sVns
p219
I4
sVsize
p220
I40059
sa(dp221
Vcomment
p222
VI've removed speculation and some original reseach
p223
sVsizediff
p224
I-358
sVpageid
p225
I12563163
sVtitle
p226
VWorld of Warcraft: Wrath of the Lich King
p227
sVtimestamp
p228
V2007-10-25T04:59:44Z
p229
sVtags
p230
(lp231
sVuserid
p232
I80802
sVrevid
p233
I166918105
sVuser
p234
VEyrian
p235
sVparentid
p236
I166689746
sVns
p237
I0
sVsize
p238
I12704
sa(dp239
Vcomment
p240
V/* Non-mainspace */ add
p241
sVsizediff
p242
I73
sVpageid
p243
I12561329
sVtitle
p244
VWikipedia:Protected titles/August 2007/List
p245
sVtimestamp
p246
V2007-08-26T18:37:14Z
p247
sVtags
p248
(lp249
sVuserid
p250
I80802
sVrevid
p251
I153787882
sVuser
p252
VEyrian
p253
sVparentid
p254
I153725994
sVns
p255
I4
sVsize
p256
I33014
sa(dp257
Vcomment
p258
V/* [[List of fictional universes]] */ reply
p259
sVsizediff
p260
I167
sVpageid
p261
I12949962
sVtitle
p262
VWikipedia:Articles for deletion/List of fictional universes (2nd nomination)
p263
sVtimestamp
p264
V2007-08-26T18:30:15Z
p265
sVtags
p266
(lp267
sVuserid
p268
I80802
sVrevid
p269
I153786625
sVuser
p270
VEyrian
p271
sVparentid
p272
I153786134
sVns
p273
I4
sVsize
p274
I5920
sa(dp275
Vcomment
p276
VReverted edits by [[Special:Contributions/Mister.Manticore|Mister.Manticore]] ([[User talk:Mister.Manticore|talk]]) to last version by Eyrian
p277
sVsizediff
p278
I-131
sVpageid
p279
I8264175
sVtitle
p280
VTechnomancer
p281
sVtimestamp
p282
V2007-08-26T18:13:26Z
p283
sVtags
p284
(lp285
sVuserid
p286
I80802
sVrevid
p287
I153783896
sVuser
p288
VEyrian
p289
sVparentid
p290
I153783531
sVns
p291
I0
sVsize
p292
I359
sa(dp293
Vcomment
p294
V/* [[List of fictional universes]] */ reply
p295
sVsizediff
p296
I462
sVpageid
p297
I12949962
sVtitle
p298
VWikipedia:Articles for deletion/List of fictional universes (2nd nomination)
p299
sVtimestamp
p300
V2007-08-26T18:12:27Z
p301
sVtags
p302
(lp303
sVuserid
p304
I80802
sVrevid
p305
I153783727
sVuser
p306
VEyrian
p307
sVparentid
p308
I153782603
sVns
p309
I4
sVsize
p310
I4795
sa(dp311
Vcomment
p312
VReverted edits by [[Special:Contributions/Mister.Manticore|Mister.Manticore]] ([[User talk:Mister.Manticore|talk]]) to last version by Eyrian
p313
sVsizediff
p314
I-131
sVpageid
p315
I8264175
sVtitle
p316
VTechnomancer
p317
sVtimestamp
p318
V2007-08-26T18:10:10Z
p319
sVtags
p320
(lp321
sVuserid
p322
I80802
sVrevid
p323
I153783362
sVuser
p324
VEyrian
p325
sVparentid
p326
I153783036
sVns
p327
I0
sVsize
p328
I359
sa(dp329
Vcomment
p330
V/* [[List of fictional companies]] */ tpyo
p331
sVsizediff
p332
I0
sVpageid
p333
I12949918
sVtitle
p334
VWikipedia:Articles for deletion/List of fictional companies (2nd nomination)
p335
sVtimestamp
p336
V2007-08-26T18:10:03Z
p337
sVtags
p338
(lp339
sVuserid
p340
I80802
sVrevid
p341
I153783335
sVuser
p342
VEyrian
p343
sVparentid
p344
I153783253
sVns
p345
I4
sVsize
p346
I7051
sa(dp347
Vcomment
p348
V/* [[List of fictional companies]] */ reply
p349
sVsizediff
p350
I617
sVpageid
p351
I12949918
sVtitle
p352
VWikipedia:Articles for deletion/List of fictional companies (2nd nomination)
p353
sVtimestamp
p354
V2007-08-26T18:09:30Z
p355
sVtags
p356
(lp357
sVuserid
p358
I80802
sVrevid
p359
I153783253
sVuser
p360
VEyrian
p361
sVparentid
p362
I153781981
sVns
p363
I4
sVsize
p364
I7051
sa(dp365
Vcomment
p366
Vadd
p367
sVsizediff
p368
I285
sVpageid
p369
I276447
sVtitle
p370
VFortune 500
p371
sVtimestamp
p372
V2007-08-26T18:05:44Z
p373
sVtags
p374
(lp375
sVuserid
p376
I80802
sVrevid
p377
I153782607
sVuser
p378
VEyrian
p379
sVparentid
p380
I153782125
sVns
p381
I0
sVsize
p382
I2081
sa(dp383
Vcomment
p384
V/* [[List of fictional universes]] */ reply
p385
sVsizediff
p386
I223
sVpageid
p387
I12949962
sVtitle
p388
VWikipedia:Articles for deletion/List of fictional universes (2nd nomination)
p389
sVtimestamp
p390
V2007-08-26T18:00:17Z
p391
sVtags
p392
(lp393
sVuserid
p394
I80802
sVrevid
p395
I153781761
sVuser
p396
VEyrian
p397
sVparentid
p398
I153779557
sVns
p399
I4
sVsize
p400
I3923
sa(dp401
Vcomment
p402
V/* Dungeons & Dragons creatures */ reply
p403
sVsizediff
p404
I342
sVpageid
p405
I12875262
sVtitle
p406
VWikipedia:Articles for deletion/Dungeons & Dragons creatures
p407
sVtimestamp
p408
V2007-08-26T17:57:41Z
p409
sVtags
p410
(lp411
sVuserid
p412
I80802
sVrevid
p413
I153781361
sVuser
p414
VEyrian
p415
sVparentid
p416
I153779482
sVns
p417
I4
sVsize
p418
I91296
sa(dp419
Vcomment
p420
Vrv; trivial
p421
sVsizediff
p422
I-394
sVpageid
p423
I10663147
sVtitle
p424
VAssassination of John F. Kennedy in popular culture
p425
sVtimestamp
p426
V2007-08-26T17:46:46Z
p427
sVtags
p428
(lp429
sVuserid
p430
I80802
sVrevid
p431
I153779668
sVuser
p432
VEyrian
p433
sVparentid
p434
I153778630
sVns
p435
I0
sVsize
p436
I7290
sa(dp437
Vcomment
p438
Vno indiaction of that; by standard conventions, that'd be a "technopath"
p439
sVsizediff
p440
I-58
sVpageid
p441
I8264175
sVtitle
p442
VTechnomancer
p443
sVtimestamp
p444
V2007-08-26T17:43:57Z
p445
sVtags
p446
(lp447
sVuserid
p448
I80802
sVrevid
p449
I153779222
sVuser
p450
VEyrian
p451
sVparentid
p452
I153779115
sVns
p453
I0
sVsize
p454
I359
sa(dp455
Vcomment
p456
Vnot called that
p457
sVsizediff
p458
I-73
sVpageid
p459
I8264175
sVtitle
p460
VTechnomancer
p461
sVtimestamp
p462
V2007-08-26T17:43:18Z
p463
sVtags
p464
(lp465
sVuserid
p466
I80802
sVrevid
p467
I153779115
sVuser
p468
VEyrian
p469
sVparentid
p470
I153763429
sVns
p471
I0
sVsize
p472
I417
sa(dp473
Vcomment
p474
Vcitation needed
p475
sVsizediff
p476
I9
sVpageid
p477
I3833
sVtitle
p478
VBeowulf
p479
sVtimestamp
p480
V2007-08-26T17:42:19Z
p481
sVtags
p482
(lp483
sVuserid
p484
I80802
sVrevid
p485
I153778974
sVuser
p486
VEyrian
p487
sVparentid
p488
I153775110
sVns
p489
I0
sVsize
p490
I46761
sa(dp491
Vcomment
p492
V/* Experienced admin needed to close AfD */ neutral
p493
sVsizediff
p494
I-2
sVpageid
p495
I5149102
sVtitle
p496
VWikipedia:Administrators' noticeboard
p497
sVtimestamp
p498
V2007-08-26T17:40:57Z
p499
sVtags
p500
(lp501
sVuserid
p502
I80802
sVrevid
p503
I153778755
sVuser
p504
VEyrian
p505
sVparentid
p506
I153778699
sVns
p507
I4
sVsize
p508
I87332
sa(dp509
Vcomment
p510
VExperienced admin needed to close AfD
p511
sVsizediff
p512
I444
sVpageid
p513
I5149102
sVtitle
p514
VWikipedia:Administrators' noticeboard
p515
sVtimestamp
p516
V2007-08-26T17:40:35Z
p517
sVtags
p518
(lp519
sVuserid
p520
I80802
sVrevid
p521
I153778699
sVuser
p522
VEyrian
p523
sVparentid
p524
I153777066
sVns
p525
I4
sVsize
p526
I87334
sa(dp527
Vcomment
p528
V/* Dungeons & Dragons creatures */ typo
p529
sVsizediff
p530
I0
sVpageid
p531
I12875262
sVtitle
p532
VWikipedia:Articles for deletion/Dungeons & Dragons creatures
p533
sVtimestamp
p534
V2007-08-26T17:23:07Z
p535
sVtags
p536
(lp537
sVuserid
p538
I80802
sVrevid
p539
I153775942
sVuser
p540
VEyrian
p541
sVparentid
p542
I153775858
sVns
p543
I4
sVsize
p544
I90699
sa(dp545
Vcomment
p546
V/* Dungeons & Dragons creatures */ reply
p547
sVsizediff
p548
I167
sVpageid
p549
I12875262
sVtitle
p550
VWikipedia:Articles for deletion/Dungeons & Dragons creatures
p551
sVtimestamp
p552
V2007-08-26T17:22:41Z
p553
sVtags
p554
(lp555
sVuserid
p556
I80802
sVrevid
p557
I153775858
sVuser
p558
VEyrian
p559
sVparentid
p560
I153749322
sVns
p561
I4
sVsize
p562
I90699
sass.