(dp0
S'Geogre'
p1
(dp2
S'before_block'
p3
(lp4
(dp5
Vcomment
p6
V/* Geogre */
p7
sVsizediff
p8
I2354
sVpageid
p9
I23968567
sVtitle
p10
VWikipedia:Arbitration/Requests/Motions
p11
sVtimestamp
p12
V2009-07-28T14:23:08Z
p13
sVtags
p14
(lp15
sVuserid
p16
I31377
sVrevid
p17
I304683475
sVuser
p18
VGeogre
p19
sVparentid
p20
I304670322
sVns
p21
I4
sVsize
p22
I90300
sa(dp23
Vcomment
p24
V/* Statement by Geogre */ missing word was bugging me; revising to make sense
p25
sVsizediff
p26
I-1
sVpageid
p27
I22747298
sVtitle
p28
VWikipedia:Arbitration/Requests/Case
p29
sVtimestamp
p30
V2009-07-23T11:53:38Z
p31
sVtags
p32
(lp33
sVuserid
p34
I31377
sVrevid
p35
I303720878
sVuser
p36
VGeogre
p37
sVparentid
p38
I303687613
sVns
p39
I4
sVsize
p40
I75004
sa(dp41
Vcomment
p42
V[[WP:RBK|Reverted]] edits by [[Special:Contributions/173.105.126.172|173.105.126.172]] ([[User talk:173.105.126.172|talk]]) to last version by DSisyphBot
p43
sVsizediff
p44
I595
sVpageid
p45
I1003469
sVtitle
p46
VOroonoko
p47
sVtimestamp
p48
V2009-07-23T00:33:01Z
p49
sVtags
p50
(lp51
sVuserid
p52
I31377
sVrevid
p53
I303640521
sVuser
p54
VGeogre
p55
sVparentid
p56
I303620194
sVns
p57
I0
sVsize
p58
I40721
sa(dp59
Vcomment
p60
V/* What to do with these? */
p61
sVsizediff
p62
I2603
sVpageid
p63
I23571224
sVtitle
p64
VWikipedia talk:Advisory Council on Project Development/Forum
p65
sVtimestamp
p66
V2009-07-22T12:26:56Z
p67
sVtags
p68
(lp69
sVuserid
p70
I31377
sVrevid
p71
I303521619
sVuser
p72
VGeogre
p73
sVparentid
p74
I303410027
sVns
p75
I5
sVsize
p76
I119581
sa(dp77
Vcomment
p78
V/* Statement by Daniel */ Adding statement above clerk
p79
sVsizediff
p80
I2846
sVpageid
p81
I22747298
sVtitle
p82
VWikipedia:Arbitration/Requests/Case
p83
sVtimestamp
p84
V2009-07-22T12:08:23Z
p85
sVtags
p86
(lp87
sVuserid
p88
I31377
sVrevid
p89
I303519577
sVuser
p90
VGeogre
p91
sVparentid
p92
I303508088
sVns
p93
I4
sVsize
p94
I51710
sa(dp95
Vcomment
p96
V/* Guidelines, but not guides */
p97
sVsizediff
p98
I2060
sVpageid
p99
I11496133
sVtitle
p100
VWikipedia talk:Reliable sources/Noticeboard
p101
sVtimestamp
p102
V2009-07-22T00:38:33Z
p103
sVtags
p104
(lp105
sVuserid
p106
I31377
sVrevid
p107
I303442303
sVuser
p108
VGeogre
p109
sVparentid
p110
I303418175
sVns
p111
I5
sVsize
p112
I145403
sa(dp113
Vcomment
p114
V/* Guidelines, but not guides */ new section
p115
sVsizediff
p116
I2236
sVpageid
p117
I11496133
sVtitle
p118
VWikipedia talk:Reliable sources/Noticeboard
p119
sVtimestamp
p120
V2009-07-21T20:12:12Z
p121
sVtags
p122
(lp123
sVuserid
p124
I31377
sVrevid
p125
I303399997
sVuser
p126
VGeogre
p127
sVparentid
p128
I303375241
sVns
p129
I5
sVsize
p130
I142350
sa(dp131
Vcomment
p132
V/* Counter-protest */
p133
sVsizediff
p134
I305
sVpageid
p135
I23565975
sVtitle
p136
VWikipedia:The Great Wikipedia Dramaout
p137
sVtimestamp
p138
V2009-07-21T19:56:08Z
p139
sVtags
p140
(lp141
sVuserid
p142
I31377
sVrevid
p143
I303397112
sVuser
p144
VGeogre
p145
sVparentid
p146
I303388846
sVns
p147
I4
sVsize
p148
I45359
sa(dp149
Vcomment
p150
VIt's an acceptable usage of "ironic" that the day you stop bringing an umbrella is when the rain falls
p151
sVsizediff
p152
I12
sVpageid
p153
I9951797
sVtitle
p154
VPrince's Palace of Monaco
p155
sVtimestamp
p156
V2009-07-19T16:43:44Z
p157
sVtags
p158
(lp159
sVuserid
p160
I31377
sVrevid
p161
I302971916
sVuser
p162
VGeogre
p163
sVparentid
p164
I302951995
sVns
p165
I0
sVsize
p166
I47610
sa(dp167
Vcomment
p168
VSeriously, Near Threatened for the housefly? This exceptionally common and hardy insect found on three continents?
p169
sVsizediff
p170
I0
sVpageid
p171
I19637950
sVtitle
p172
VHousefly
p173
sVtimestamp
p174
V2009-07-18T18:48:05Z
p175
sVtags
p176
(lp177
sVuserid
p178
I31377
sVrevid
p179
I302813501
sVuser
p180
VGeogre
p181
sVparentid
p182
I302503541
sVns
p183
I0
sVsize
p184
I11547
sass.