(dp0
S'Isis~enwiki'
p1
(dp2
S'before_block'
p3
(lp4
(dp5
Vcomment
p6
V
p7
sVsizediff
p8
I113
sVpageid
p9
I69001
sVtitle
p10
VWilliam IX, Count of Poitiers
p11
sVtimestamp
p12
V2003-02-03T08:32:38Z
p13
sVtags
p14
(lp15
sVuserid
p16
I3362
sVrevid
p17
I1197512
sVuser
p18
VIsis~enwiki
p19
sVparentid
p20
I639803
sVns
p21
I0
sVsize
p22
I1884
sa(dp23
Vcomment
p24
Vcopyedit
p25
sVsizediff
p26
I28
sVpageid
p27
I8432
sVtitle
p28
VDave Barry
p29
sVtimestamp
p30
V2003-02-02T17:21:01Z
p31
sVtags
p32
(lp33
sVuserid
p34
I3362
sVrevid
p35
I638737
sVuser
p36
VIsis~enwiki
p37
sVparentid
p38
I638336
sVns
p39
I0
sVsize
p40
I6334
sa(dp41
Vcomment
p42
V'comming' to 'coming'
p43
sVsizediff
p44
I-1
sVpageid
p45
I21217
sVtitle
p46
VNative Americans in the United States
p47
sVtimestamp
p48
V2003-02-02T09:50:16Z
p49
sVtags
p50
(lp51
sVuserid
p52
I3362
sVrevid
p53
I641520
sVuser
p54
VIsis~enwiki
p55
sVparentid
p56
I637678
sVns
p57
I0
sVsize
p58
I17339
sa(dp59
Vcomment
p60
Vdisambiguating
p61
sVsizediff
p62
I114
sVpageid
p63
I177069
sVtitle
p64
VSamoyed
p65
sVtimestamp
p66
V2003-02-02T09:47:09Z
p67
sVtags
p68
(lp69
sVuserid
p70
I3362
sVrevid
p71
I1323896
sVuser
p72
VIsis~enwiki
p73
sVparentid
p74
I637672
sVns
p75
I0
sVsize
p76
I114
sa(dp77
Vcomment
p78
Vcopyedit
p79
sVsizediff
p80
I43
sVpageid
p81
I8432
sVtitle
p82
VDave Barry
p83
sVtimestamp
p84
V2003-02-02T06:56:46Z
p85
sVtags
p86
(lp87
sVuserid
p88
I3362
sVrevid
p89
I638306
sVuser
p90
VIsis~enwiki
p91
sVparentid
p92
I637452
sVns
p93
I0
sVsize
p94
I6326
sa(dp95
Vcomment
p96
Vin the u.s. truth is an absolute defense,  and npov may be good enough
p97
sVsizediff
p98
I318
sVpageid
p99
I177606
sVtitle
p100
VWikipedia:Libel
p101
sVtimestamp
p102
V2003-02-02T05:33:12Z
p103
sVtags
p104
(lp105
sVuserid
p106
I3362
sVrevid
p107
I640690
sVuser
p108
VIsis~enwiki
p109
sVparentid
p110
I637259
sVns
p111
I4
sVsize
p112
I2139
sa(dp113
Vcomment
p114
Vadd links
p115
sVsizediff
p116
I53
sVpageid
p117
I28661
sVtitle
p118
VDefamation
p119
sVtimestamp
p120
V2003-02-02T04:53:54Z
p121
sVtags
p122
(lp123
sVuserid
p124
I3362
sVrevid
p125
I751864
sVuser
p126
VIsis~enwiki
p127
sVparentid
p128
I637181
sVns
p129
I0
sVsize
p130
I8030
sa(dp131
Vcomment
p132
Vadd cross-reference
p133
sVsizediff
p134
I80
sVpageid
p135
I174751
sVtitle
p136
VAmerican Eskimo Dog
p137
sVtimestamp
p138
V2003-02-02T03:01:08Z
p139
sVtags
p140
(lp141
sVuserid
p142
I3362
sVrevid
p143
I767217
sVuser
p144
VIsis~enwiki
p145
sVparentid
p146
I636951
sVns
p147
I0
sVsize
p148
I1751
sa(dp149
Vcomment
p150
Vfix typo
p151
sVsizediff
p152
I-4
sVpageid
p153
I28661
sVtitle
p154
VDefamation
p155
sVtimestamp
p156
V2003-02-01T14:38:50Z
p157
sVtags
p158
(lp159
sVuserid
p160
I3362
sVrevid
p161
I637181
sVuser
p162
VIsis~enwiki
p163
sVparentid
p164
I635380
sVns
p165
I0
sVsize
p166
I7977
sa(dp167
Vcomment
p168
Vadding defamation per se
p169
sVsizediff
p170
I918
sVpageid
p171
I28661
sVtitle
p172
VDefamation
p173
sVtimestamp
p174
V2003-02-01T14:36:36Z
p175
sVtags
p176
(lp177
sVuserid
p178
I3362
sVrevid
p179
I635380
sVuser
p180
VIsis~enwiki
p181
sVparentid
p182
I635377
sVns
p183
I0
sVsize
p184
I7981
sa(dp185
Vcomment
p186
g7
sVsizediff
p187
I236
sVpageid
p188
I473697
sVtitle
p189
VWikipedia:Votes for deletion archive May 2004
p190
sVtimestamp
p191
V2003-02-01T13:40:32Z
p192
sVtags
p193
(lp194
sVuserid
p195
I3362
sVrevid
p196
I636152
sVuser
p197
VIsis~enwiki
p198
sVparentid
p199
I635303
sVns
p200
I4
sVsize
p201
I26773
sa(dp202
Vcomment
p203
V[[Samoyed]]
p204
sVsizediff
p205
I174
sVpageid
p206
I473697
sVtitle
p207
VWikipedia:Votes for deletion archive May 2004
p208
sVtimestamp
p209
V2003-02-01T02:54:36Z
p210
sVtags
p211
(lp212
sVuserid
p213
I3362
sVrevid
p214
I634708
sVuser
p215
VIsis~enwiki
p216
sVparentid
p217
I634675
sVns
p218
I4
sVsize
p219
I25116
sa(dp220
Vcomment
p221
Vfix typo
p222
sVsizediff
p223
I0
sVpageid
p224
I14745
sVtitle
p225
VIndian
p226
sVtimestamp
p227
V2003-01-31T11:46:52Z
p228
sVtags
p229
(lp230
sVuserid
p231
I3362
sVrevid
p232
I695616
sVuser
p233
VIsis~enwiki
p234
sVparentid
p235
I633201
sVns
p236
I0
sVsize
p237
I998
sa(dp238
Vcomment
p239
Vfix typo
p240
sVsizediff
p241
I1
sVpageid
p242
I3074
sVtitle
p243
VAndrophagi
p244
sVtimestamp
p245
V2003-01-31T08:44:12Z
p246
sVtags
p247
(lp248
sVuserid
p249
I3362
sVrevid
p250
I2033775
sVuser
p251
VIsis~enwiki
p252
sVparentid
p253
I632901
sVns
p254
I0
sVsize
p255
I432
sa(dp256
Vcomment
p257
g7
sVsizediff
p258
I32
sVpageid
p259
I3074
sVtitle
p260
VAndrophagi
p261
sVtimestamp
p262
V2003-01-31T08:43:28Z
p263
sVtags
p264
(lp265
sVuserid
p266
I3362
sVrevid
p267
I632901
sVuser
p268
VIsis~enwiki
p269
sVparentid
p270
I632898
sVns
p271
I0
sVsize
p272
I431
sa(dp273
Vcomment
p274
Vadd derivation
p275
sVsizediff
p276
I46
sVpageid
p277
I174689
sVtitle
p278
VNenets people
p279
sVtimestamp
p280
V2003-01-31T08:23:59Z
p281
sVtags
p282
(lp283
sVuserid
p284
I3362
sVrevid
p285
I729557
sVuser
p286
VIsis~enwiki
p287
sVparentid
p288
I632866
sVns
p289
I0
sVsize
p290
I1116
sa(dp291
Vcomment
p292
Vfix link
p293
sVsizediff
p294
I17
sVpageid
p295
I3074
sVtitle
p296
VAndrophagi
p297
sVtimestamp
p298
V2003-01-31T08:13:14Z
p299
sVtags
p300
(lp301
sVuserid
p302
I3362
sVrevid
p303
I632898
sVuser
p304
VIsis~enwiki
p305
sVparentid
p306
I632846
sVns
p307
I0
sVsize
p308
I399
sa(dp309
Vcomment
p310
Vfix link
p311
sVsizediff
p312
I12
sVpageid
p313
I81978
sVtitle
p314
VSputnik 2
p315
sVtimestamp
p316
V2003-01-31T08:11:36Z
p317
sVtags
p318
(lp319
sVuserid
p320
I3362
sVrevid
p321
I639332
sVuser
p322
VIsis~enwiki
p323
sVparentid
p324
I632842
sVns
p325
I0
sVsize
p326
I3435
sa(dp327
Vcomment
p328
Vfix typo
p329
sVsizediff
p330
I-2
sVpageid
p331
I176666
sVtitle
p332
VCount of Poitiers
p333
sVtimestamp
p334
V2003-01-31T07:57:26Z
p335
sVtags
p336
(lp337
sVuserid
p338
I3362
sVrevid
p339
I2233100
sVuser
p340
VIsis~enwiki
p341
sVparentid
p342
I632818
sVns
p343
I0
sVsize
p344
I1052
sa(dp345
Vcomment
p346
Vadd some
p347
sVsizediff
p348
I276
sVpageid
p349
I176666
sVtitle
p350
VCount of Poitiers
p351
sVtimestamp
p352
V2003-01-31T07:53:36Z
p353
sVtags
p354
(lp355
sVuserid
p356
I3362
sVrevid
p357
I632818
sVuser
p358
VIsis~enwiki
p359
sVparentid
p360
I632815
sVns
p361
I0
sVsize
p362
I1054
sa(dp363
Vcomment
p364
Vadd somr
p365
sVsizediff
p366
I70
sVpageid
p367
I176666
sVtitle
p368
VCount of Poitiers
p369
sVtimestamp
p370
V2003-01-31T06:44:01Z
p371
sVtags
p372
(lp373
sVuserid
p374
I3362
sVrevid
p375
I632815
sVuser
p376
VIsis~enwiki
p377
sVparentid
p378
I632704
sVns
p379
I0
sVsize
p380
I778
sa(dp381
Vcomment
p382
g7
sVsizediff
p383
I36
sVpageid
p384
I60739
sVtitle
p385
VPoitou
p386
sVtimestamp
p387
V2003-01-31T06:26:32Z
p388
sVtags
p389
(lp390
sVuserid
p391
I3362
sVrevid
p392
I2233080
sVuser
p393
VIsis~enwiki
p394
sVparentid
p395
I632679
sVns
p396
I0
sVsize
p397
I402
sa(dp398
Vcomment
p399
g7
sVsizediff
p400
I59
sVpageid
p401
I51489
sVtitle
p402
VPoitiers
p403
sVtimestamp
p404
V2003-01-31T06:25:32Z
p405
sVtags
p406
(lp407
sVuserid
p408
I3362
sVrevid
p409
I706748
sVuser
p410
VIsis~enwiki
p411
sVparentid
p412
I632674
sVns
p413
I0
sVsize
p414
I465
sa(dp415
Vcomment
p416
Vexpanding on facts
p417
sVsizediff
p418
I739
sVpageid
p419
I69001
sVtitle
p420
VWilliam IX, Count of Poitiers
p421
sVtimestamp
p422
V2003-01-31T05:38:04Z
p423
sVtags
p424
(lp425
sVuserid
p426
I3362
sVrevid
p427
I639803
sVuser
p428
VIsis~enwiki
p429
sVparentid
p430
I632575
sVns
p431
I0
sVsize
p432
I1771
sa(dp433
Vcomment
p434
Vdisambiguating
p435
sVsizediff
p436
I129
sVpageid
p437
I46199914
sVtitle
p438
VRichard III (disambiguation)
p439
sVtimestamp
p440
V2003-01-31T05:06:25Z
p441
sVtags
p442
(lp443
sVuserid
p444
I3362
sVrevid
p445
I700255
sVuser
p446
VIsis~enwiki
p447
sVparentid
p448
I632536
sVns
p449
I0
sVsize
p450
I166
sa(dp451
Vcomment
p452
Vadd cross-reference
p453
sVsizediff
p454
I73
sVpageid
p455
I60739
sVtitle
p456
VPoitou
p457
sVtimestamp
p458
V2003-01-31T04:37:51Z
p459
sVtags
p460
(lp461
sVuserid
p462
I3362
sVrevid
p463
I632679
sVuser
p464
VIsis~enwiki
p465
sVparentid
p466
I632492
sVns
p467
I0
sVsize
p468
I366
sa(dp469
Vcomment
p470
Vadd cross reference
p471
sVsizediff
p472
I53
sVpageid
p473
I51489
sVtitle
p474
VPoitiers
p475
sVtimestamp
p476
V2003-01-31T04:36:08Z
p477
sVtags
p478
(lp479
sVuserid
p480
I3362
sVrevid
p481
I632674
sVuser
p482
VIsis~enwiki
p483
sVparentid
p484
I632489
sVns
p485
I0
sVsize
p486
I406
sa(dp487
Vcomment
p488
Vcomma
p489
sVsizediff
p490
I1
sVpageid
p491
I176751
sVtitle
p492
VDuke of Aquitaine
p493
sVtimestamp
p494
V2003-01-31T04:27:29Z
p495
sVtags
p496
(lp497
sVuserid
p498
I3362
sVrevid
p499
I1832893
sVuser
p500
VIsis~enwiki
p501
sVparentid
p502
I632477
sVns
p503
I0
sVsize
p504
I1850
sa(dp505
Vcomment
p506
Vcomma
p507
sVsizediff
p508
I1
sVpageid
p509
I176751
sVtitle
p510
VDuke of Aquitaine
p511
sVtimestamp
p512
V2003-01-31T04:26:49Z
p513
sVtags
p514
(lp515
sVuserid
p516
I3362
sVrevid
p517
I632477
sVuser
p518
VIsis~enwiki
p519
sVparentid
p520
I632476
sVns
p521
I0
sVsize
p522
I1849
sa(dp523
Vcomment
p524
Vadding sobriquets
p525
sVsizediff
p526
I42
sVpageid
p527
I176751
sVtitle
p528
VDuke of Aquitaine
p529
sVtimestamp
p530
V2003-01-31T04:26:15Z
p531
sVtags
p532
(lp533
sVuserid
p534
I3362
sVrevid
p535
I632476
sVuser
p536
VIsis~enwiki
p537
sVparentid
p538
I632475
sVns
p539
I0
sVsize
p540
I1848
sa(dp541
Vcomment
p542
g7
sVsizediff
p543
I-22
sVpageid
p544
I26284
sVtitle
p545
VRichard III of England
p546
sVtimestamp
p547
V2003-01-31T04:11:07Z
p548
sVtags
p549
(lp550
sVuserid
p551
I3362
sVrevid
p552
I663451
sVuser
p553
VIsis~enwiki
p554
sVparentid
p555
I632458
sVns
p556
I0
sVsize
p557
I7224
sa(dp558
Vcomment
p559
Vfix typo
p560
sVsizediff
p561
I-4
sVpageid
p562
I26284
sVtitle
p563
VRichard III of England
p564
sVtimestamp
p565
V2003-01-31T03:25:12Z
p566
sVtags
p567
(lp568
sVuserid
p569
I3362
sVrevid
p570
I632458
sVuser
p571
VIsis~enwiki
p572
sVparentid
p573
I632401
sVns
p574
I0
sVsize
p575
I7246
sa(dp576
Vcomment
p577
Vadd minor info & cross references
p578
sVsizediff
p579
I384
sVpageid
p580
I26284
sVtitle
p581
VRichard III of England
p582
sVtimestamp
p583
V2003-01-31T03:23:41Z
p584
sVtags
p585
(lp586
sVuserid
p587
I3362
sVrevid
p588
I632401
sVuser
p589
VIsis~enwiki
p590
sVparentid
p591
I632400
sVns
p592
I0
sVsize
p593
I7250
sa(dp594
Vcomment
p595
Vadd link
p596
sVsizediff
p597
I4
sVpageid
p598
I170595
sVtitle
p599
VPomeranian dog
p600
sVtimestamp
p601
V2003-01-31T02:42:58Z
p602
sVtags
p603
(lp604
sVuserid
p605
I3362
sVrevid
p606
I646235
sVuser
p607
VIsis~enwiki
p608
sVparentid
p609
I632333
sVns
p610
I0
sVsize
p611
I222
sa(dp612
Vcomment
p613
Vadd derivation of name
p614
sVsizediff
p615
I28
sVpageid
p616
I170595
sVtitle
p617
VPomeranian dog
p618
sVtimestamp
p619
V2003-01-31T02:41:46Z
p620
sVtags
p621
(lp622
sVuserid
p623
I3362
sVrevid
p624
I632333
sVuser
p625
VIsis~enwiki
p626
sVparentid
p627
I632330
sVns
p628
I0
sVsize
p629
I218
sa(dp630
Vcomment
p631
Vadd links
p632
sVsizediff
p633
I17
sVpageid
p634
I174678
sVtitle
p635
VSamoyed dog
p636
sVtimestamp
p637
V2003-01-31T02:39:00Z
p638
sVtags
p639
(lp640
sVuserid
p641
I3362
sVrevid
p642
I1010715
sVuser
p643
VIsis~enwiki
p644
sVparentid
p645
I632326
sVns
p646
I0
sVsize
p647
I1169
sa(dp648
Vcomment
p649
Vpunctuation
p650
sVsizediff
p651
I-16
sVpageid
p652
I86562
sVtitle
p653
VJohn de la Pole
p654
sVtimestamp
p655
V2003-01-31T02:32:40Z
p656
sVtags
p657
(lp658
sVuserid
p659
I3362
sVrevid
p660
I973827
sVuser
p661
VIsis~enwiki
p662
sVparentid
p663
I632318
sVns
p664
I0
sVsize
p665
I1027
sa(dp666
Vcomment
p667
Vadd links
p668
sVsizediff
p669
I16
sVpageid
p670
I26284
sVtitle
p671
VRichard III of England
p672
sVtimestamp
p673
V2003-01-31T02:30:09Z
p674
sVtags
p675
(lp676
sVuserid
p677
I3362
sVrevid
p678
I632400
sVuser
p679
VIsis~enwiki
p680
sVparentid
p681
I632313
sVns
p682
I0
sVsize
p683
I6866
sass.