(dp0
S'Malcolm'
p1
(dp2
S'before_block'
p3
(lp4
(dp5
Vcomment
p6
Vrevert to last good version
p7
sVsizediff
p8
I17
sVpageid
p9
I704925
sVtitle
p10
VWilly Wonka
p11
sVtimestamp
p12
V2012-01-01T00:40:15Z
p13
sVtags
p14
(lp15
sVuserid
p16
I1661697
sVrevid
p17
I468855701
sVuser
p18
VMalcolm
p19
sVparentid
p20
I467724211
sVns
p21
I0
sVsize
p22
I14354
sa(dp23
Vcomment
p24
VRevert. The fact that reruns of the special were discontinued isn't really relevant here, at least not in the lead.
p25
sVsizediff
p26
I-63
sVpageid
p27
I2572749
sVtitle
p28
VIt's Arbor Day, Charlie Brown
p29
sVtimestamp
p30
V2011-12-19T04:55:39Z
p31
sVtags
p32
(lp33
sVuserid
p34
I1661697
sVrevid
p35
I466638927
sVuser
p36
VMalcolm
p37
sVparentid
p38
I465141020
sVns
p39
I0
sVsize
p40
I6236
sa(dp41
Vcomment
p42
VRevert good faith edits (wasn't Oprah's Book Club discontinued, though?).
p43
sVsizediff
p44
I-123
sVpageid
p45
I704925
sVtitle
p46
VWilly Wonka
p47
sVtimestamp
p48
V2011-12-14T03:25:58Z
p49
sVtags
p50
(lp51
sVuserid
p52
I1661697
sVrevid
p53
I465754231
sVuser
p54
VMalcolm
p55
sVparentid
p56
I465703906
sVns
p57
I0
sVsize
p58
I14354
sa(dp59
Vcomment
p60
VThis doesn't need to be mentioned in the opening paragraph. Anyway, it's already implied in the infobox.
p61
sVsizediff
p62
I-65
sVpageid
p63
I226573
sVtitle
p64
VSimple Plan
p65
sVtimestamp
p66
V2011-12-07T20:51:22Z
p67
sVtags
p68
(lp69
sVuserid
p70
I1661697
sVrevid
p71
I464634437
sVuser
p72
VMalcolm
p73
sVparentid
p74
I464339730
sVns
p75
I0
sVsize
p76
I30168
sa(dp77
Vcomment
p78
VTense fix.
p79
sVsizediff
p80
I-10
sVpageid
p81
I9785797
sVtitle
p82
VThe Legend of Zelda: Skyward Sword
p83
sVtimestamp
p84
V2011-11-24T01:08:58Z
p85
sVtags
p86
(lp87
sVuserid
p88
I1661697
sVrevid
p89
I462190842
sVuser
p90
VMalcolm
p91
sVparentid
p92
I462186057
sVns
p93
I0
sVsize
p94
I37416
sa(dp95
Vcomment
p96
VRemove redundancy.
p97
sVsizediff
p98
I-18
sVpageid
p99
I21492751
sVtitle
p100
VNelson Mandela
p101
sVtimestamp
p102
V2011-11-14T03:43:05Z
p103
sVtags
p104
(lp105
sVuserid
p106
I1661697
sVrevid
p107
I460551654
sVuser
p108
VMalcolm
p109
sVparentid
p110
I460435386
sVns
p111
I0
sVsize
p112
I131848
sa(dp113
Vcomment
p114
V[[Help:Reverting|Reverted]] edits by [[Special:Contributions/174.1.39.171|174.1.39.171]] ([[User talk:174.1.39.171|talk]]) to last version by STSC
p115
sVsizediff
p116
I2486
sVpageid
p117
I44637010
sVtitle
p118
VWong Sing-chi
p119
sVtimestamp
p120
V2011-11-06T23:45:22Z
p121
sVtags
p122
(lp123
sVuserid
p124
I1661697
sVrevid
p125
I459372682
sVuser
p126
VMalcolm
p127
sVparentid
p128
I459372644
sVns
p129
I0
sVsize
p130
I5140
sa(dp131
Vcomment
p132
VRevert unexplained date change and improper change of tense ([[WP:MOSTV#Lead_paragraphs]]).
p133
sVsizediff
p134
I-1
sVpageid
p135
I448312
sVtitle
p136
VLarry King Live
p137
sVtimestamp
p138
V2011-11-03T01:32:34Z
p139
sVtags
p140
(lp141
sVuserid
p142
I1661697
sVrevid
p143
I458739514
sVuser
p144
VMalcolm
p145
sVparentid
p146
I456095716
sVns
p147
I0
sVsize
p148
I21655
sa(dp149
Vcomment
p150
Vmoved [[Dr B. R. Ambedkar University]] to [[Dr. B. R. Ambedkar University]]: Proper name.
p151
sVsizediff
p152
I43
sVpageid
p153
I33598820
sVtitle
p154
VDr B. R. Ambedkar University
p155
sVtimestamp
p156
V2011-11-01T01:29:31Z
p157
sVtags
p158
(lp159
sVuserid
p160
I1661697
sVrevid
p161
I458391227
sVuser
p162
VMalcolm
p163
sVparentid
p164
I0
sVns
p165
I0
sVsize
p166
I43
sa(dp167
Vcomment
p168
Vmoved [[Dr B. R. Ambedkar University]] to [[Dr. B. R. Ambedkar University]]: Proper name.
p169
sVsizediff
p170
I0
sVpageid
p171
I10780280
sVtitle
p172
VDr. Bhimrao Ambedkar University
p173
sVtimestamp
p174
V2011-11-01T01:29:31Z
p175
sVtags
p176
(lp177
sVuserid
p178
I1661697
sVrevid
p179
I458391226
sVuser
p180
VMalcolm
p181
sVparentid
p182
I458345291
sVns
p183
I0
sVsize
p184
I2022
sa(dp185
Vcomment
p186
VSpeedy deletion declined. Valid redirect.
p187
sVsizediff
p188
I-1607
sVpageid
p189
I13227538
sVtitle
p190
VLegend of a cowgirl
p191
sVtimestamp
p192
V2011-10-31T21:53:40Z
p193
sVtags
p194
(lp195
sVuserid
p196
I1661697
sVrevid
p197
I458365908
sVuser
p198
VMalcolm
p199
sVparentid
p200
I458365739
sVns
p201
I0
sVsize
p202
I27
sa(dp203
Vcomment
p204
Vmoved [[Arts catalyst]] to [[Arts Catalyst]]: capitalization
p205
sVsizediff
p206
I27
sVpageid
p207
I33591914
sVtitle
p208
VArts catalyst
p209
sVtimestamp
p210
V2011-10-31T12:56:41Z
p211
sVtags
p212
(lp213
sVuserid
p214
I1661697
sVrevid
p215
I458288350
sVuser
p216
VMalcolm
p217
sVparentid
p218
I0
sVns
p219
I0
sVsize
p220
I27
sa(dp221
Vcomment
p222
Vmoved [[Arts catalyst]] to [[Arts Catalyst]]: capitalization
p223
sVsizediff
p224
I0
sVpageid
p225
I33584072
sVtitle
p226
VArts Catalyst
p227
sVtimestamp
p228
V2011-10-31T12:56:41Z
p229
sVtags
p230
(lp231
sVuserid
p232
I1661697
sVrevid
p233
I458288349
sVuser
p234
VMalcolm
p235
sVparentid
p236
I458213237
sVns
p237
I0
sVsize
p238
I28567
sass.