(dp0
S'Nichalp'
p1
(dp2
S'before_block'
p3
(lp4
(dp5
Vcomment
p6
V/* Active members */ remv unknown user
p7
sVsizediff
p8
I-30
sVpageid
p9
I5915407
sVtitle
p10
VWikipedia:WikiProject India/Members
p11
sVtimestamp
p12
V2009-01-31T20:22:14Z
p13
sVtags
p14
(lp15
sVuserid
p16
I41228
sVrevid
p17
I267685557
sVuser
p18
VNichalp
p19
sVparentid
p20
I267685391
sVns
p21
I4
sVsize
p22
I21033
sa(dp23
Vcomment
p24
V+me = inactive
p25
sVsizediff
p26
I0
sVpageid
p27
I5915407
sVtitle
p28
VWikipedia:WikiProject India/Members
p29
sVtimestamp
p30
V2009-01-31T20:21:28Z
p31
sVtags
p32
(lp33
sVuserid
p34
I41228
sVrevid
p35
I267685391
sVuser
p36
VNichalp
p37
sVparentid
p38
I267355412
sVns
p39
I4
sVsize
p40
I21063
sa(dp41
Vcomment
p42
V/* inactive */ new section
p43
sVsizediff
p44
I250
sVpageid
p45
I2530810
sVtitle
p46
VWikipedia:Bureaucrats' noticeboard
p47
sVtimestamp
p48
V2009-01-31T20:09:26Z
p49
sVtags
p50
(lp51
sVuserid
p52
I41228
sVrevid
p53
I267682911
sVuser
p54
VNichalp
p55
sVparentid
p56
I267680230
sVns
p57
I4
sVsize
p58
I12672
sa(dp59
Vcomment
p60
V+me = inactive
p61
sVsizediff
p62
I11
sVpageid
p63
I18590839
sVtitle
p64
VWikipedia:WikiProject Mumbai/Members
p65
sVtimestamp
p66
V2009-01-31T20:06:38Z
p67
sVtags
p68
(lp69
sVuserid
p70
I41228
sVrevid
p71
I267682447
sVuser
p72
VNichalp
p73
sVparentid
p74
I264764130
sVns
p75
I4
sVsize
p76
I2493
sa(dp77
Vcomment
p78
V/* Current bureaucrats */ I'm no longer active
p79
sVsizediff
p80
I9
sVpageid
p81
I475196
sVtitle
p82
VWikipedia:Bureaucrats
p83
sVtimestamp
p84
V2009-01-31T18:49:41Z
p85
sVtags
p86
(lp87
sVuserid
p88
I41228
sVrevid
p89
I267668544
sVuser
p90
VNichalp
p91
sVparentid
p92
I267475953
sVns
p93
I4
sVsize
p94
I12984
sa(dp95
Vcomment
p96
V/* Nomination */ update tally
p97
sVsizediff
p98
I0
sVpageid
p99
I21261513
sVtitle
p100
VWikipedia:Requests for adminship/RegentsPark
p101
sVtimestamp
p102
V2009-01-31T14:04:30Z
p103
sVtags
p104
(lp105
sVuserid
p106
I41228
sVrevid
p107
I267620597
sVuser
p108
VNichalp
p109
sVparentid
p110
I267536352
sVns
p111
I4
sVsize
p112
I62807
sa(dp113
Vcomment
p114
V/* Ancient period */ image is Kanheri, not Mahakali -- see my commons shots of Mahakali; changing image
p115
sVsizediff
p116
I-17
sVpageid
p117
I19205492
sVtitle
p118
VHistory of Mumbai
p119
sVtimestamp
p120
V2009-01-30T16:54:58Z
p121
sVtags
p122
(lp123
sVuserid
p124
I41228
sVrevid
p125
I267430434
sVuser
p126
VNichalp
p127
sVparentid
p128
I267426083
sVns
p129
I0
sVsize
p130
I97889
sa(dp131
Vcomment
p132
V/* Intro */ infobox fix
p133
sVsizediff
p134
I69
sVpageid
p135
I21249385
sVtitle
p136
VHavaldar Gajender Singh
p137
sVtimestamp
p138
V2009-01-30T07:55:36Z
p139
sVtags
p140
(lp141
sVuserid
p142
I41228
sVrevid
p143
I267363091
sVuser
p144
VNichalp
p145
sVparentid
p146
I266712071
sVns
p147
I0
sVsize
p148
I3648
sa(dp149
Vcomment
p150
V/* Oppose */ comment
p151
sVsizediff
p152
I430
sVpageid
p153
I21261513
sVtitle
p154
VWikipedia:Requests for adminship/RegentsPark
p155
sVtimestamp
p156
V2009-01-29T08:13:18Z
p157
sVtags
p158
(lp159
sVuserid
p160
I41228
sVrevid
p161
I267152551
sVuser
p162
VNichalp
p163
sVparentid
p164
I267084439
sVns
p165
I4
sVsize
p166
I54986
sa(dp167
Vcomment
p168
V/* Oppose */ comments
p169
sVsizediff
p170
I972
sVpageid
p171
I21261513
sVtitle
p172
VWikipedia:Requests for adminship/RegentsPark
p173
sVtimestamp
p174
V2009-01-28T18:58:37Z
p175
sVtags
p176
(lp177
sVuserid
p178
I41228
sVrevid
p179
I267020758
sVuser
p180
VNichalp
p181
sVparentid
p182
I267003849
sVns
p183
I4
sVsize
p184
I51746
sa(dp185
Vcomment
p186
V/* Jaakovs \u2192 MASQUERAID */ see no problem
p187
sVsizediff
p188
I257
sVpageid
p189
I7535778
sVtitle
p190
VWikipedia:Changing username/Simple
p191
sVtimestamp
p192
V2009-01-28T11:47:31Z
p193
sVtags
p194
(lp195
sVuserid
p196
I41228
sVrevid
p197
I266948494
sVuser
p198
VNichalp
p199
sVparentid
p200
I266947136
sVns
p201
I4
sVsize
p202
I27732
sa(dp203
Vcomment
p204
V/* Oppose */ reply to Ottava
p205
sVsizediff
p206
I301
sVpageid
p207
I21261513
sVtitle
p208
VWikipedia:Requests for adminship/RegentsPark
p209
sVtimestamp
p210
V2009-01-28T11:34:13Z
p211
sVtags
p212
(lp213
sVuserid
p214
I41228
sVrevid
p215
I266946800
sVuser
p216
VNichalp
p217
sVparentid
p218
I266945747
sVns
p219
I4
sVsize
p220
I44450
sa(dp221
Vcomment
p222
V/* Support */ support implied :)
p223
sVsizediff
p224
I173
sVpageid
p225
I21261513
sVtitle
p226
VWikipedia:Requests for adminship/RegentsPark
p227
sVtimestamp
p228
V2009-01-28T08:16:35Z
p229
sVtags
p230
(lp231
sVuserid
p232
I41228
sVrevid
p233
I266927417
sVuser
p234
VNichalp
p235
sVparentid
p236
I266926753
sVns
p237
I4
sVsize
p238
I43567
sa(dp239
Vcomment
p240
V/* Oppose */ question
p241
sVsizediff
p242
I203
sVpageid
p243
I21261513
sVtitle
p244
VWikipedia:Requests for adminship/RegentsPark
p245
sVtimestamp
p246
V2009-01-28T08:08:28Z
p247
sVtags
p248
(lp249
sVuserid
p250
I41228
sVrevid
p251
I266926753
sVuser
p252
VNichalp
p253
sVparentid
p254
I266910745
sVns
p255
I4
sVsize
p256
I43394
sa(dp257
Vcomment
p258
V/* Nomination */ update tally
p259
sVsizediff
p260
I0
sVpageid
p261
I21261513
sVtitle
p262
VWikipedia:Requests for adminship/RegentsPark
p263
sVtimestamp
p264
V2009-01-27T12:46:47Z
p265
sVtags
p266
(lp267
sVuserid
p268
I41228
sVrevid
p269
I266736441
sVuser
p270
VNichalp
p271
sVparentid
p272
I266735305
sVns
p273
I4
sVsize
p274
I29283
sa(dp275
Vcomment
p276
V/* Neutral */ reply to Chasingsol
p277
sVsizediff
p278
I880
sVpageid
p279
I21261513
sVtitle
p280
VWikipedia:Requests for adminship/RegentsPark
p281
sVtimestamp
p282
V2009-01-27T12:26:38Z
p283
sVtags
p284
(lp285
sVuserid
p286
I41228
sVrevid
p287
I266734188
sVuser
p288
VNichalp
p289
sVparentid
p290
I266730547
sVns
p291
I4
sVsize
p292
I28485
sa(dp293
Vcomment
p294
V/* Death */ Metro Junction Mall???? That's waaaaaaayyyyyyy off target.
p295
sVsizediff
p296
I-4
sVpageid
p297
I20416021
sVtitle
p298
VHemant Karkare
p299
sVtimestamp
p300
V2009-01-27T07:06:08Z
p301
sVtags
p302
(lp303
sVuserid
p304
I41228
sVrevid
p305
I266704259
sVuser
p306
VNichalp
p307
sVparentid
p308
I266491020
sVns
p309
I0
sVsize
p310
I7476
sa(dp311
Vcomment
p312
V/* Nomination */ fix ending time
p313
sVsizediff
p314
I0
sVpageid
p315
I21261513
sVtitle
p316
VWikipedia:Requests for adminship/RegentsPark
p317
sVtimestamp
p318
V2009-01-26T21:06:12Z
p319
sVtags
p320
(lp321
sVuserid
p322
I41228
sVrevid
p323
I266604495
sVuser
p324
VNichalp
p325
sVparentid
p326
I266583415
sVns
p327
I4
sVsize
p328
I7833
sa(dp329
Vcomment
p330
V/* Current nominations for adminship */ +RegentsPark -- good luck
p331
sVsizediff
p332
I49
sVpageid
p333
I2609425
sVtitle
p334
VWikipedia:Requests for adminship
p335
sVtimestamp
p336
V2009-01-26T21:05:40Z
p337
sVtags
p338
(lp339
sVuserid
p340
I41228
sVrevid
p341
I266604365
sVuser
p342
VNichalp
p343
sVparentid
p344
I266230735
sVns
p345
I4
sVsize
p346
I2451
sass.