(dp0
S'Pastor Theo'
p1
(dp2
S'before_block'
p3
(lp4
(dp5
Vcomment
p6
V/* Support */ Support for A new name...
p7
sVsizediff
p8
I265
sVpageid
p9
I24291613
sVtitle
p10
VWikipedia:Requests for adminship/A new name 2008
p11
sVtimestamp
p12
V2009-09-11T13:07:02Z
p13
sVtags
p14
(lp15
sVuserid
p16
I8750970
sVrevid
p17
I313182700
sVuser
p18
VPastor Theo
p19
sVparentid
p20
I313180636
sVns
p21
I4
sVsize
p22
I46368
sa(dp23
Vcomment
p24
V/* Discussion */ Correctly answered questions
p25
sVsizediff
p26
I258
sVpageid
p27
I24291613
sVtitle
p28
VWikipedia:Requests for adminship/A new name 2008
p29
sVtimestamp
p30
V2009-09-11T12:49:03Z
p31
sVtags
p32
(lp33
sVuserid
p34
I8750970
sVrevid
p35
I313180636
sVuser
p36
VPastor Theo
p37
sVparentid
p38
I313179089
sVns
p39
I4
sVsize
p40
I46103
sa(dp41
Vcomment
p42
V/* Discussion */ Can I help?
p43
sVsizediff
p44
I414
sVpageid
p45
I24291613
sVtitle
p46
VWikipedia:Requests for adminship/A new name 2008
p47
sVtimestamp
p48
V2009-09-11T03:49:49Z
p49
sVtags
p50
(lp51
sVuserid
p52
I8750970
sVrevid
p53
I313128220
sVuser
p54
VPastor Theo
p55
sVparentid
p56
I313125479
sVns
p57
I4
sVsize
p58
I40652
sa(dp59
Vcomment
p60
VUnreferenced and Expand tags added
p61
sVsizediff
p62
I29
sVpageid
p63
I24292640
sVtitle
p64
VMucor amphiborum
p65
sVtimestamp
p66
V2009-09-10T02:50:03Z
p67
sVtags
p68
(lp69
sVuserid
p70
I8750970
sVrevid
p71
I312906339
sVuser
p72
VPastor Theo
p73
sVparentid
p74
I312906030
sVns
p75
I0
sVsize
p76
I321
sa(dp77
Vcomment
p78
VPutting article on AfD list
p79
sVsizediff
p80
I46
sVpageid
p81
I24226470
sVtitle
p82
VWikipedia:Articles for deletion/Log/2009 September 9
p83
sVtimestamp
p84
V2009-09-09T21:05:12Z
p85
sVtags
p86
(lp87
sVuserid
p88
I8750970
sVrevid
p89
I312851002
sVuser
p90
VPastor Theo
p91
sVparentid
p92
I312850899
sVns
p93
I4
sVsize
p94
I5566
sa(dp95
Vcomment
p96
VAfD discussion page
p97
sVsizediff
p98
I576
sVpageid
p99
I24289337
sVtitle
p100
VWikipedia:Articles for deletion/Sula Kim
p101
sVtimestamp
p102
V2009-09-09T21:04:23Z
p103
sVtags
p104
(lp105
sVuserid
p106
I8750970
sVrevid
p107
I312850857
sVuser
p108
VPastor Theo
p109
sVparentid
p110
I0
sVns
p111
I4
sVsize
p112
I576
sa(dp113
Vcomment
p114
V/* Break, Break, Break (movie) */
p115
sVsizediff
p116
I0
sVpageid
p117
I24216907
sVtitle
p118
VWikipedia:Articles for deletion/Break, Break, Break (movie)
p119
sVtimestamp
p120
V2009-09-08T19:44:05Z
p121
sVtags
p122
(lp123
sVuserid
p124
I8750970
sVrevid
p125
I312642922
sVuser
p126
VPastor Theo
p127
sVparentid
p128
I312642855
sVns
p129
I4
sVsize
p130
I27611
sa(dp131
Vcomment
p132
V/* Break, Break, Break (movie) */ Strong keep
p133
sVsizediff
p134
I930
sVpageid
p135
I24216907
sVtitle
p136
VWikipedia:Articles for deletion/Break, Break, Break (movie)
p137
sVtimestamp
p138
V2009-09-08T19:43:45Z
p139
sVtags
p140
(lp141
sVuserid
p142
I8750970
sVrevid
p143
I312642855
sVuser
p144
VPastor Theo
p145
sVparentid
p146
I312503251
sVns
p147
I4
sVsize
p148
I27611
sa(dp149
Vcomment
p150
V/* Oppose */ switching word - mugs instead of bums (more US-centric)
p151
sVsizediff
p152
I0
sVpageid
p153
I24215873
sVtitle
p154
VWikipedia:Requests for bureaucratship/Xeno
p155
sVtimestamp
p156
V2009-09-08T17:05:08Z
p157
sVtags
p158
(lp159
sVuserid
p160
I8750970
sVrevid
p161
I312617673
sVuser
p162
VPastor Theo
p163
sVparentid
p164
I312617526
sVns
p165
I4
sVsize
p166
I132710
sa(dp167
Vcomment
p168
V/* Oppose */ response
p169
sVsizediff
p170
I293
sVpageid
p171
I24215873
sVtitle
p172
VWikipedia:Requests for bureaucratship/Xeno
p173
sVtimestamp
p174
V2009-09-08T17:04:08Z
p175
sVtags
p176
(lp177
sVuserid
p178
I8750970
sVrevid
p179
I312617526
sVuser
p180
VPastor Theo
p181
sVparentid
p182
I312616967
sVns
p183
I4
sVsize
p184
I132710
sa(dp185
Vcomment
p186
V/* Oppose */ response
p187
sVsizediff
p188
I610
sVpageid
p189
I24215873
sVtitle
p190
VWikipedia:Requests for bureaucratship/Xeno
p191
sVtimestamp
p192
V2009-09-08T16:21:09Z
p193
sVtags
p194
(lp195
sVuserid
p196
I8750970
sVrevid
p197
I312610974
sVuser
p198
VPastor Theo
p199
sVparentid
p200
I312609891
sVns
p201
I4
sVsize
p202
I130084
sa(dp203
Vcomment
p204
V/* Support */ Support for Willking 1979
p205
sVsizediff
p206
I159
sVpageid
p207
I24266125
sVtitle
p208
VWikipedia:Requests for adminship/Willking1979 2
p209
sVtimestamp
p210
V2009-09-08T13:40:27Z
p211
sVtags
p212
(lp213
sVuserid
p214
I8750970
sVrevid
p215
I312586632
sVuser
p216
VPastor Theo
p217
sVparentid
p218
I312573037
sVns
p219
I4
sVsize
p220
I12420
sa(dp221
Vcomment
p222
V/* Oppose */ clarification
p223
sVsizediff
p224
I60
sVpageid
p225
I24215873
sVtitle
p226
VWikipedia:Requests for bureaucratship/Xeno
p227
sVtimestamp
p228
V2009-09-07T22:26:36Z
p229
sVtags
p230
(lp231
sVuserid
p232
I8750970
sVrevid
p233
I312475831
sVuser
p234
VPastor Theo
p235
sVparentid
p236
I312475167
sVns
p237
I4
sVsize
p238
I123707
sa(dp239
Vcomment
p240
V/* Oppose */ Opposing Xeno's RfB
p241
sVsizediff
p242
I1241
sVpageid
p243
I24215873
sVtitle
p244
VWikipedia:Requests for bureaucratship/Xeno
p245
sVtimestamp
p246
V2009-09-07T22:02:19Z
p247
sVtags
p248
(lp249
sVuserid
p250
I8750970
sVrevid
p251
I312471706
sVuser
p252
VPastor Theo
p253
sVparentid
p254
I312471134
sVns
p255
I4
sVsize
p256
I123303
sa(dp257
Vcomment
p258
V/* Support */ Striking vote, moving to Oppose
p259
sVsizediff
p260
I33
sVpageid
p261
I24215873
sVtitle
p262
VWikipedia:Requests for bureaucratship/Xeno
p263
sVtimestamp
p264
V2009-09-07T21:58:58Z
p265
sVtags
p266
(lp267
sVuserid
p268
I8750970
sVrevid
p269
I312471134
sVuser
p270
VPastor Theo
p271
sVparentid
p272
I312451152
sVns
p273
I4
sVsize
p274
I122062
sa(dp275
Vcomment
p276
V/* Neutral */ Neutral on J04n's RfA
p277
sVsizediff
p278
I200
sVpageid
p279
I24223956
sVtitle
p280
VWikipedia:Requests for adminship/J04n
p281
sVtimestamp
p282
V2009-09-07T21:39:43Z
p283
sVtags
p284
(lp285
sVuserid
p286
I8750970
sVrevid
p287
I312467915
sVuser
p288
VPastor Theo
p289
sVparentid
p290
I312463205
sVns
p291
I4
sVsize
p292
I70646
sa(dp293
Vcomment
p294
V/* Support */ Support for ImperatorExercitus
p295
sVsizediff
p296
I223
sVpageid
p297
I24245391
sVtitle
p298
VWikipedia:Requests for adminship/ImperatorExercitus 2
p299
sVtimestamp
p300
V2009-09-07T21:25:58Z
p301
sVtags
p302
(lp303
sVuserid
p304
I8750970
sVrevid
p305
I312465622
sVuser
p306
VPastor Theo
p307
sVparentid
p308
I312465008
sVns
p309
I4
sVsize
p310
I42163
sa(dp311
Vcomment
p312
V/* Support */ Support for MuZemike
p313
sVsizediff
p314
I178
sVpageid
p315
I24228148
sVtitle
p316
VWikipedia:Requests for adminship/MuZemike
p317
sVtimestamp
p318
V2009-09-07T21:20:42Z
p319
sVtags
p320
(lp321
sVuserid
p322
I8750970
sVrevid
p323
I312464719
sVuser
p324
VPastor Theo
p325
sVparentid
p326
I312463528
sVns
p327
I4
sVsize
p328
I19704
sa(dp329
Vcomment
p330
V/* Oppose */ comment
p331
sVsizediff
p332
I505
sVpageid
p333
I24215873
sVtitle
p334
VWikipedia:Requests for bureaucratship/Xeno
p335
sVtimestamp
p336
V2009-09-06T01:00:14Z
p337
sVtags
p338
(lp339
sVuserid
p340
I8750970
sVrevid
p341
I312104187
sVuser
p342
VPastor Theo
p343
sVparentid
p344
I312103195
sVns
p345
I4
sVsize
p346
I93021
sa(dp347
Vcomment
p348
Vcopy editing
p349
sVsizediff
p350
I-5
sVpageid
p351
I18412610
sVtitle
p352
VGeorge Loane Tucker
p353
sVtimestamp
p354
V2009-09-05T03:03:02Z
p355
sVtags
p356
(lp357
sVuserid
p358
I8750970
sVrevid
p359
I311949012
sVuser
p360
VPastor Theo
p361
sVparentid
p362
I311948797
sVns
p363
I0
sVsize
p364
I1300
sa(dp365
Vcomment
p366
Vfix link
p367
sVsizediff
p368
I-11
sVpageid
p369
I18412610
sVtitle
p370
VGeorge Loane Tucker
p371
sVtimestamp
p372
V2009-09-05T03:01:02Z
p373
sVtags
p374
(lp375
sVuserid
p376
I8750970
sVrevid
p377
I311948797
sVuser
p378
VPastor Theo
p379
sVparentid
p380
I310072892
sVns
p381
I0
sVsize
p382
I1305
sa(dp383
Vcomment
p384
V/* Bible Institute of Los Angeles */ Redirect link
p385
sVsizediff
p386
I232
sVpageid
p387
I5149102
sVtitle
p388
VWikipedia:Administrators' noticeboard
p389
sVtimestamp
p390
V2009-09-05T02:31:01Z
p391
sVtags
p392
(lp393
sVuserid
p394
I8750970
sVrevid
p395
I311945318
sVuser
p396
VPastor Theo
p397
sVparentid
p398
I311944970
sVns
p399
I4
sVsize
p400
I183031
sa(dp401
Vcomment
p402
VWikiProject banner added
p403
sVsizediff
p404
I11
sVpageid
p405
I24227001
sVtitle
p406
VThe Perfect Specimen
p407
sVtimestamp
p408
V2009-09-05T02:23:35Z
p409
sVtags
p410
(lp411
sVuserid
p412
I8750970
sVrevid
p413
I311944466
sVuser
p414
VPastor Theo
p415
sVparentid
p416
I311936503
sVns
p417
I0
sVsize
p418
I1123
sa(dp419
Vcomment
p420
VExpand tag
p421
sVsizediff
p422
I11
sVpageid
p423
I24227175
sVtitle
p424
VJanie (1944 film)
p425
sVtimestamp
p426
V2009-09-05T02:17:59Z
p427
sVtags
p428
(lp429
sVuserid
p430
I8750970
sVrevid
p431
I311943772
sVuser
p432
VPastor Theo
p433
sVparentid
p434
I311940719
sVns
p435
I0
sVsize
p436
I1087
sa(dp437
Vcomment
p438
VExpand tag
p439
sVsizediff
p440
I11
sVpageid
p441
I24226493
sVtitle
p442
VThe Woman from Monte Carlo
p443
sVtimestamp
p444
V2009-09-05T02:15:08Z
p445
sVtags
p446
(lp447
sVuserid
p448
I8750970
sVrevid
p449
I311943413
sVuser
p450
VPastor Theo
p451
sVparentid
p452
I311926007
sVns
p453
I0
sVsize
p454
I1091
sass.