(dp0
S'Phil Sandifer'
p1
(dp2
S'before_block'
p3
(lp4
(dp5
Vcomment
p6
V/* Outside references */ Rm two fairly lame "references" that were rather straw-grasping.
p7
sVsizediff
p8
I-632
sVpageid
p9
I15523771
sVtitle
p10
VA Day in the Death
p11
sVtimestamp
p12
V2013-10-31T21:09:10Z
p13
sVtags
p14
(lp15
sVuserid
p16
I60895
sVrevid
p17
I579661889
sVuser
p18
VPhil Sandifer
p19
sVparentid
p20
I575299087
sVns
p21
I0
sVsize
p22
I8796
sa(dp23
Vcomment
p24
V/* Renters security */ surely what is actually meant
p25
sVsizediff
p26
I-1
sVpageid
p27
I32058290
sVtitle
p28
VAirbnb
p29
sVtimestamp
p30
V2013-10-29T04:10:32Z
p31
sVtags
p32
(lp33
sVuserid
p34
I60895
sVrevid
p35
I579222803
sVuser
p36
VPhil Sandifer
p37
sVparentid
p38
I578605080
sVns
p39
I0
sVsize
p40
I49481
sa(dp41
Vcomment
p42
V/* ColonelHenry */
p43
sVsizediff
p44
I224
sVpageid
p45
I40456599
sVtitle
p46
VWikipedia talk:Arbitration/Requests/Case/Manning naming dispute/Proposed decision
p47
sVtimestamp
p48
V2013-10-07T19:51:16Z
p49
sVtags
p50
(lp51
sVuserid
p52
I60895
sVrevid
p53
I576186956
sVuser
p54
VPhil Sandifer
p55
sVparentid
p56
I576182802
sVns
p57
I5
sVsize
p58
I246653
sa(dp59
Vcomment
p60
V/* Writing */ No it doesn't - Davies had nearly finished the script before he realized the name similarity.
p61
sVsizediff
p62
I-172
sVpageid
p63
I12025149
sVtitle
p64
VVoyage of the Damned (Doctor Who)
p65
sVtimestamp
p66
V2013-10-07T03:48:54Z
p67
sVtags
p68
(lp69
sVuserid
p70
I60895
sVrevid
p71
I576087389
sVuser
p72
VPhil Sandifer
p73
sVparentid
p74
I571448409
sVns
p75
I0
sVsize
p76
I34582
sa(dp77
Vcomment
p78
V/* SilkTork */
p79
sVsizediff
p80
I284
sVpageid
p81
I40456599
sVtitle
p82
VWikipedia talk:Arbitration/Requests/Case/Manning naming dispute/Proposed decision
p83
sVtimestamp
p84
V2013-10-03T18:29:14Z
p85
sVtags
p86
(lp87
sVuserid
p88
I60895
sVrevid
p89
I575615532
sVuser
p90
VPhil Sandifer
p91
sVparentid
p92
I575590916
sVns
p93
I5
sVsize
p94
I213464
sa(dp95
Vcomment
p96
V/* Per harm to persons */
p97
sVsizediff
p98
I469
sVpageid
p99
I40456599
sVtitle
p100
VWikipedia talk:Arbitration/Requests/Case/Manning naming dispute/Proposed decision
p101
sVtimestamp
p102
V2013-10-03T01:11:38Z
p103
sVtags
p104
(lp105
sVuserid
p106
I60895
sVrevid
p107
I575518399
sVuser
p108
VPhil Sandifer
p109
sVparentid
p110
I575507373
sVns
p111
I5
sVsize
p112
I202496
sa(dp113
Vcomment
p114
V/* Should the admins have blocked discussion for 30 days? */
p115
sVsizediff
p116
I206
sVpageid
p117
I40456599
sVtitle
p118
VWikipedia talk:Arbitration/Requests/Case/Manning naming dispute/Proposed decision
p119
sVtimestamp
p120
V2013-10-02T01:01:32Z
p121
sVtags
p122
(lp123
sVuserid
p124
I60895
sVrevid
p125
I575369823
sVuser
p126
VPhil Sandifer
p127
sVparentid
p128
I575369539
sVns
p129
I5
sVsize
p130
I187416
sa(dp131
Vcomment
p132
V/* Josh Gorand and context */
p133
sVsizediff
p134
I334
sVpageid
p135
I40456599
sVtitle
p136
VWikipedia talk:Arbitration/Requests/Case/Manning naming dispute/Proposed decision
p137
sVtimestamp
p138
V2013-10-01T18:20:07Z
p139
sVtags
p140
(lp141
sVuserid
p142
I60895
sVrevid
p143
I575323122
sVuser
p144
VPhil Sandifer
p145
sVparentid
p146
I575319587
sVns
p147
I5
sVsize
p148
I180343
sa(dp149
Vcomment
p150
V/* Josh Gorand block irregularity */
p151
sVsizediff
p152
I175
sVpageid
p153
I40456599
sVtitle
p154
VWikipedia talk:Arbitration/Requests/Case/Manning naming dispute/Proposed decision
p155
sVtimestamp
p156
V2013-10-01T17:44:13Z
p157
sVtags
p158
(lp159
sVuserid
p160
I60895
sVrevid
p161
I575318218
sVuser
p162
VPhil Sandifer
p163
sVparentid
p164
I575318084
sVns
p165
I5
sVsize
p166
I179058
sa(dp167
Vcomment
p168
V/* Josh Gorand block irregularity */
p169
sVsizediff
p170
I208
sVpageid
p171
I40456599
sVtitle
p172
VWikipedia talk:Arbitration/Requests/Case/Manning naming dispute/Proposed decision
p173
sVtimestamp
p174
V2013-10-01T17:22:16Z
p175
sVtags
p176
(lp177
sVuserid
p178
I60895
sVrevid
p179
I575315307
sVuser
p180
VPhil Sandifer
p181
sVparentid
p182
I575315140
sVns
p183
I5
sVsize
p184
I175666
sa(dp185
Vcomment
p186
V/* Josh Gorand block irregularity */
p187
sVsizediff
p188
I697
sVpageid
p189
I40456599
sVtitle
p190
VWikipedia talk:Arbitration/Requests/Case/Manning naming dispute/Proposed decision
p191
sVtimestamp
p192
V2013-10-01T17:20:42Z
p193
sVtags
p194
(lp195
sVuserid
p196
I60895
sVrevid
p197
I575315140
sVuser
p198
VPhil Sandifer
p199
sVparentid
p200
I575314436
sVns
p201
I5
sVsize
p202
I175458
sa(dp203
Vcomment
p204
V/* Josh Gorand block irregularity */
p205
sVsizediff
p206
I1394
sVpageid
p207
I40456599
sVtitle
p208
VWikipedia talk:Arbitration/Requests/Case/Manning naming dispute/Proposed decision
p209
sVtimestamp
p210
V2013-10-01T17:03:13Z
p211
sVtags
p212
(lp213
sVuserid
p214
I60895
sVrevid
p215
I575313054
sVuser
p216
VPhil Sandifer
p217
sVparentid
p218
I575311737
sVns
p219
I5
sVsize
p220
I172758
sa(dp221
Vcomment
p222
V/* Possible Josh Gorand topic ban */
p223
sVsizediff
p224
I1810
sVpageid
p225
I40456599
sVtitle
p226
VWikipedia talk:Arbitration/Requests/Case/Manning naming dispute/Proposed decision
p227
sVtimestamp
p228
V2013-10-01T16:04:08Z
p229
sVtags
p230
(lp231
sVuserid
p232
I60895
sVrevid
p233
I575305750
sVuser
p234
VPhil Sandifer
p235
sVparentid
p236
I575259069
sVns
p237
I5
sVsize
p238
I167353
sa(dp239
Vcomment
p240
V/* Battleground mentality by Phil Sandifer */
p241
sVsizediff
p242
I576
sVpageid
p243
I40456097
sVtitle
p244
VWikipedia:Arbitration/Requests/Case/Manning naming dispute/Workshop
p245
sVtimestamp
p246
V2013-09-28T02:38:57Z
p247
sVtags
p248
(lp249
sVuserid
p250
I60895
sVrevid
p251
I574820803
sVuser
p252
VPhil Sandifer
p253
sVparentid
p254
I574819571
sVns
p255
I4
sVsize
p256
I1024163
sa(dp257
Vcomment
p258
V/* Inappropriate comments during discussion of the pagemove */
p259
sVsizediff
p260
I2857
sVpageid
p261
I40456097
sVtitle
p262
VWikipedia:Arbitration/Requests/Case/Manning naming dispute/Workshop
p263
sVtimestamp
p264
V2013-09-28T02:00:23Z
p265
sVtags
p266
(lp267
sVuserid
p268
I60895
sVrevid
p269
I574817198
sVuser
p270
VPhil Sandifer
p271
sVparentid
p272
I574814874
sVns
p273
I4
sVsize
p274
I1022451
sa(dp275
Vcomment
p276
V/* April Arcus canvassing and apology */
p277
sVsizediff
p278
I383
sVpageid
p279
I40456097
sVtitle
p280
VWikipedia:Arbitration/Requests/Case/Manning naming dispute/Workshop
p281
sVtimestamp
p282
V2013-09-28T00:04:40Z
p283
sVtags
p284
(lp285
sVuserid
p286
I60895
sVrevid
p287
I574807447
sVuser
p288
VPhil Sandifer
p289
sVparentid
p290
I574807236
sVns
p291
I4
sVsize
p292
I1014394
sa(dp293
Vcomment
p294
V/* Inappropriate comments during discussion of the pagemove */
p295
sVsizediff
p296
I780
sVpageid
p297
I40456097
sVtitle
p298
VWikipedia:Arbitration/Requests/Case/Manning naming dispute/Workshop
p299
sVtimestamp
p300
V2013-09-27T23:22:18Z
p301
sVtags
p302
(lp303
sVuserid
p304
I60895
sVrevid
p305
I574803646
sVuser
p306
VPhil Sandifer
p307
sVparentid
p308
I574803431
sVns
p309
I4
sVsize
p310
I1010787
sa(dp311
Vcomment
p312
V/* Analysis of change of article title by David Gerard */
p313
sVsizediff
p314
I649
sVpageid
p315
I40456097
sVtitle
p316
VWikipedia:Arbitration/Requests/Case/Manning naming dispute/Workshop
p317
sVtimestamp
p318
V2013-09-27T16:27:46Z
p319
sVtags
p320
(lp321
sVuserid
p322
I60895
sVrevid
p323
I574758900
sVuser
p324
VPhil Sandifer
p325
sVparentid
p326
I574757762
sVns
p327
I4
sVsize
p328
I960198
sa(dp329
Vcomment
p330
V/* Administrative decision vacated */
p331
sVsizediff
p332
I945
sVpageid
p333
I40456097
sVtitle
p334
VWikipedia:Arbitration/Requests/Case/Manning naming dispute/Workshop
p335
sVtimestamp
p336
V2013-09-27T07:52:43Z
p337
sVtags
p338
(lp339
sVuserid
p340
I60895
sVrevid
p341
I574709685
sVuser
p342
VPhil Sandifer
p343
sVparentid
p344
I574709529
sVns
p345
I4
sVsize
p346
I934261
sa(dp347
Vcomment
p348
V/* Phil Sandifer and battleground behavior */
p349
sVsizediff
p350
I468
sVpageid
p351
I40456097
sVtitle
p352
VWikipedia:Arbitration/Requests/Case/Manning naming dispute/Workshop
p353
sVtimestamp
p354
V2013-09-27T07:45:45Z
p355
sVtags
p356
(lp357
sVuserid
p358
I60895
sVrevid
p359
I574709268
sVuser
p360
VPhil Sandifer
p361
sVparentid
p362
I574709161
sVns
p363
I4
sVsize
p364
I932328
sa(dp365
Vcomment
p366
V/* Administrative decision vacated */
p367
sVsizediff
p368
I192
sVpageid
p369
I40456097
sVtitle
p370
VWikipedia:Arbitration/Requests/Case/Manning naming dispute/Workshop
p371
sVtimestamp
p372
V2013-09-27T07:39:32Z
p373
sVtags
p374
(lp375
sVuserid
p376
I60895
sVrevid
p377
I574708774
sVuser
p378
VPhil Sandifer
p379
sVparentid
p380
I574708698
sVns
p381
I4
sVsize
p382
I929747
sa(dp383
Vcomment
p384
V/* Analysis of change of article title by closing administrators */
p385
sVsizediff
p386
I1000
sVpageid
p387
I40456097
sVtitle
p388
VWikipedia:Arbitration/Requests/Case/Manning naming dispute/Workshop
p389
sVtimestamp
p390
V2013-09-27T07:38:26Z
p391
sVtags
p392
(lp393
sVuserid
p394
I60895
sVrevid
p395
I574708698
sVuser
p396
VPhil Sandifer
p397
sVparentid
p398
I574708294
sVns
p399
I4
sVsize
p400
I929555
sa(dp401
Vcomment
p402
V/* Rationale for change of article title by David Gerard */
p403
sVsizediff
p404
I247
sVpageid
p405
I40456097
sVtitle
p406
VWikipedia:Arbitration/Requests/Case/Manning naming dispute/Workshop
p407
sVtimestamp
p408
V2013-09-27T07:31:43Z
p409
sVtags
p410
(lp411
sVuserid
p412
I60895
sVrevid
p413
I574708207
sVuser
p414
VPhil Sandifer
p415
sVparentid
p416
I574708059
sVns
p417
I4
sVsize
p418
I927715
sa(dp419
Vcomment
p420
V/* Binding discussion on article title */
p421
sVsizediff
p422
I259
sVpageid
p423
I40456097
sVtitle
p424
VWikipedia:Arbitration/Requests/Case/Manning naming dispute/Workshop
p425
sVtimestamp
p426
V2013-09-27T07:29:53Z
p427
sVtags
p428
(lp429
sVuserid
p430
I60895
sVrevid
p431
I574708059
sVuser
p432
VPhil Sandifer
p433
sVparentid
p434
I574707136
sVns
p435
I4
sVsize
p436
I927468
sa(dp437
Vcomment
p438
V/* Rationale for change of article title by David Gerard */
p439
sVsizediff
p440
I1229
sVpageid
p441
I40456097
sVtitle
p442
VWikipedia:Arbitration/Requests/Case/Manning naming dispute/Workshop
p443
sVtimestamp
p444
V2013-09-27T03:21:06Z
p445
sVtags
p446
(lp447
sVuserid
p448
I60895
sVrevid
p449
I574691409
sVuser
p450
VPhil Sandifer
p451
sVparentid
p452
I574691382
sVns
p453
I4
sVsize
p454
I904141
sa(dp455
Vcomment
p456
V/* Phil Sandifer and battleground behavior */
p457
sVsizediff
p458
I161
sVpageid
p459
I40456097
sVtitle
p460
VWikipedia:Arbitration/Requests/Case/Manning naming dispute/Workshop
p461
sVtimestamp
p462
V2013-09-27T03:08:05Z
p463
sVtags
p464
(lp465
sVuserid
p466
I60895
sVrevid
p467
I574690460
sVuser
p468
VPhil Sandifer
p469
sVparentid
p470
I574688008
sVns
p471
I4
sVsize
p472
I902332
sa(dp473
Vcomment
p474
V/* Discriminatory speech by Dirac66 */
p475
sVsizediff
p476
I1139
sVpageid
p477
I40456097
sVtitle
p478
VWikipedia:Arbitration/Requests/Case/Manning naming dispute/Workshop
p479
sVtimestamp
p480
V2013-09-26T18:00:33Z
p481
sVtags
p482
(lp483
sVuserid
p484
I60895
sVrevid
p485
I574634911
sVuser
p486
VPhil Sandifer
p487
sVparentid
p488
I574634865
sVns
p489
I4
sVsize
p490
I877063
sa(dp491
Vcomment
p492
V/* Political correctness is disruptive */
p493
sVsizediff
p494
I295
sVpageid
p495
I40456097
sVtitle
p496
VWikipedia:Arbitration/Requests/Case/Manning naming dispute/Workshop
p497
sVtimestamp
p498
V2013-09-26T04:09:32Z
p499
sVtags
p500
(lp501
sVuserid
p502
I60895
sVrevid
p503
I574555278
sVuser
p504
VPhil Sandifer
p505
sVparentid
p506
I574550888
sVns
p507
I4
sVsize
p508
I817221
sa(dp509
Vcomment
p510
V/* Political correctness is disruptive */
p511
sVsizediff
p512
I232
sVpageid
p513
I40456097
sVtitle
p514
VWikipedia:Arbitration/Requests/Case/Manning naming dispute/Workshop
p515
sVtimestamp
p516
V2013-09-26T02:56:39Z
p517
sVtags
p518
(lp519
sVuserid
p520
I60895
sVrevid
p521
I574548994
sVuser
p522
VPhil Sandifer
p523
sVparentid
p524
I574545481
sVns
p525
I4
sVsize
p526
I816456
sa(dp527
Vcomment
p528
V/* Just a thought */
p529
sVsizediff
p530
I0
sVpageid
p531
I40456595
sVtitle
p532
VWikipedia talk:Arbitration/Requests/Case/Manning naming dispute/Workshop
p533
sVtimestamp
p534
V2013-09-26T02:49:48Z
p535
sVtags
p536
(lp537
sVuserid
p538
I60895
sVrevid
p539
I574548363
sVuser
p540
VPhil Sandifer
p541
sVparentid
p542
I574548238
sVns
p543
I5
sVsize
p544
I36712
sa(dp545
Vcomment
p546
V/* Just a thought */
p547
sVsizediff
p548
I312
sVpageid
p549
I40456595
sVtitle
p550
VWikipedia talk:Arbitration/Requests/Case/Manning naming dispute/Workshop
p551
sVtimestamp
p552
V2013-09-26T02:48:12Z
p553
sVtags
p554
(lp555
sVuserid
p556
I60895
sVrevid
p557
I574548238
sVuser
p558
VPhil Sandifer
p559
sVparentid
p560
I574538756
sVns
p561
I5
sVsize
p562
I36712
sa(dp563
Vcomment
p564
V/* Just a thought */
p565
sVsizediff
p566
I208
sVpageid
p567
I40456595
sVtitle
p568
VWikipedia talk:Arbitration/Requests/Case/Manning naming dispute/Workshop
p569
sVtimestamp
p570
V2013-09-26T00:54:38Z
p571
sVtags
p572
(lp573
sVuserid
p574
I60895
sVrevid
p575
I574537612
sVuser
p576
VPhil Sandifer
p577
sVparentid
p578
I574409529
sVns
p579
I5
sVsize
p580
I36150
sa(dp581
Vcomment
p582
V/* Political correctness is disruptive */
p583
sVsizediff
p584
I178
sVpageid
p585
I40456097
sVtitle
p586
VWikipedia:Arbitration/Requests/Case/Manning naming dispute/Workshop
p587
sVtimestamp
p588
V2013-09-26T00:50:17Z
p589
sVtags
p590
(lp591
sVuserid
p592
I60895
sVrevid
p593
I574537261
sVuser
p594
VPhil Sandifer
p595
sVparentid
p596
I574537177
sVns
p597
I4
sVsize
p598
I798799
sa(dp599
Vcomment
p600
V/* Phil Sandifer */
p601
sVsizediff
p602
I154
sVpageid
p603
I40456097
sVtitle
p604
VWikipedia:Arbitration/Requests/Case/Manning naming dispute/Workshop
p605
sVtimestamp
p606
V2013-09-26T00:48:13Z
p607
sVtags
p608
(lp609
sVuserid
p610
I60895
sVrevid
p611
I574537078
sVuser
p612
VPhil Sandifer
p613
sVparentid
p614
I574536958
sVns
p615
I4
sVsize
p616
I798119
sa(dp617
Vcomment
p618
V/* Battleground mentality by Phil Sandifer */
p619
sVsizediff
p620
I1116
sVpageid
p621
I40456097
sVtitle
p622
VWikipedia:Arbitration/Requests/Case/Manning naming dispute/Workshop
p623
sVtimestamp
p624
V2013-09-26T00:46:54Z
p625
sVtags
p626
(lp627
sVuserid
p628
I60895
sVrevid
p629
I574536958
sVuser
p630
VPhil Sandifer
p631
sVparentid
p632
I574535100
sVns
p633
I4
sVsize
p634
I797965
sa(dp635
Vcomment
p636
V/* Battleground mentality by Phil Sandifer */
p637
sVsizediff
p638
I1469
sVpageid
p639
I40456097
sVtitle
p640
VWikipedia:Arbitration/Requests/Case/Manning naming dispute/Workshop
p641
sVtimestamp
p642
V2013-09-25T18:57:03Z
p643
sVtags
p644
(lp645
sVuserid
p646
I60895
sVrevid
p647
I574498753
sVuser
p648
VPhil Sandifer
p649
sVparentid
p650
I574497055
sVns
p651
I4
sVsize
p652
I757335
sa(dp653
Vcomment
p654
V/* Battleground mentality by Phil Sandifer */
p655
sVsizediff
p656
I550
sVpageid
p657
I40456097
sVtitle
p658
VWikipedia:Arbitration/Requests/Case/Manning naming dispute/Workshop
p659
sVtimestamp
p660
V2013-09-25T18:30:37Z
p661
sVtags
p662
(lp663
sVuserid
p664
I60895
sVrevid
p665
I574495424
sVuser
p666
VPhil Sandifer
p667
sVparentid
p668
I574495203
sVns
p669
I4
sVsize
p670
I755070
sa(dp671
Vcomment
p672
V/* Battleground mentality by Phil Sandifer */
p673
sVsizediff
p674
I484
sVpageid
p675
I40456097
sVtitle
p676
VWikipedia:Arbitration/Requests/Case/Manning naming dispute/Workshop
p677
sVtimestamp
p678
V2013-09-25T18:21:59Z
p679
sVtags
p680
(lp681
sVuserid
p682
I60895
sVrevid
p683
I574494413
sVuser
p684
VPhil Sandifer
p685
sVparentid
p686
I574494090
sVns
p687
I4
sVsize
p688
I753954
sa(dp689
Vcomment
p690
V/* Encyclopedias follow sources, and respond slowly to changes */
p691
sVsizediff
p692
I243
sVpageid
p693
I40456097
sVtitle
p694
VWikipedia:Arbitration/Requests/Case/Manning naming dispute/Workshop
p695
sVtimestamp
p696
V2013-09-25T18:10:36Z
p697
sVtags
p698
(lp699
sVuserid
p700
I60895
sVrevid
p701
I574492991
sVuser
p702
VPhil Sandifer
p703
sVparentid
p704
I574492450
sVns
p705
I4
sVsize
p706
I750952
sass.