(dp0
S"Rama's Arrow"
p1
(dp2
S'before_block'
p3
(lp4
(dp5
Vcomment
p6
V/* Section break: Rama's arrow is incivil */ ::I do feel a bit impish when I'm ganged up on by half-a-dozen gentlemen with loose morals. ~~~~
p7
sVsizediff
p8
I269
sVpageid
p9
I11389480
sVtitle
p10
VWikipedia talk:Requests for arbitration/Hkelkar 2/Proposed decision
p11
sVtimestamp
p12
V2007-06-19T03:29:05Z
p13
sVtags
p14
(lp15
sVuserid
p16
I591624
sVrevid
p17
I139125502
sVuser
p18
VRama's Arrow
p19
sVparentid
p20
I139125332
sVns
p21
I5
sVsize
p22
I81717
sa(dp23
Vcomment
p24
V/* Blnguyen */ nonsense
p25
sVsizediff
p26
I333
sVpageid
p27
I10994700
sVtitle
p28
VWikipedia:Requests for arbitration/Hkelkar 2/Workshop
p29
sVtimestamp
p30
V2007-06-19T03:25:55Z
p31
sVtags
p32
(lp33
sVuserid
p34
I591624
sVrevid
p35
I139125051
sVuser
p36
VRama's Arrow
p37
sVparentid
p38
I139124772
sVns
p39
I4
sVsize
p40
I160464
sa(dp41
Vcomment
p42
V/* Section break: Rama's arrow is incivil */ :You first :) ~~~~
p43
sVsizediff
p44
I128
sVpageid
p45
I11389480
sVtitle
p46
VWikipedia talk:Requests for arbitration/Hkelkar 2/Proposed decision
p47
sVtimestamp
p48
V2007-06-19T03:23:33Z
p49
sVtags
p50
(lp51
sVuserid
p52
I591624
sVrevid
p53
I139124672
sVuser
p54
VRama's Arrow
p55
sVparentid
p56
I139123917
sVns
p57
I5
sVsize
p58
I80960
sa(dp59
Vcomment
p60
V/* Blnguyen */ :'''To Blnguyen''' the more you admit and explain what you know, the stronger the case gets to have you recused for abuse of your position. ~~~~
p61
sVsizediff
p62
I254
sVpageid
p63
I10994700
sVtitle
p64
VWikipedia:Requests for arbitration/Hkelkar 2/Workshop
p65
sVtimestamp
p66
V2007-06-19T03:10:53Z
p67
sVtags
p68
(lp69
sVuserid
p70
I591624
sVrevid
p71
I139122843
sVuser
p72
VRama's Arrow
p73
sVparentid
p74
I139122431
sVns
p75
I4
sVsize
p76
I159202
sa(dp77
Vcomment
p78
V/* Final statement */ again, remove the rest if you like but my "final statement" is to be retained
p79
sVsizediff
p80
I16
sVpageid
p81
I11389480
sVtitle
p82
VWikipedia talk:Requests for arbitration/Hkelkar 2/Proposed decision
p83
sVtimestamp
p84
V2007-06-19T02:48:31Z
p85
sVtags
p86
(lp87
sVuserid
p88
I591624
sVrevid
p89
I139119867
sVuser
p90
VRama's Arrow
p91
sVparentid
p92
I139119697
sVns
p93
I5
sVsize
p94
I74892
sa(dp95
Vcomment
p96
VReverted edits by [[Special:Contributions/Rama's Arrow|Rama's Arrow]] ([[User talk:Rama's Arrow|talk]]) to last version by Bakasuprman
p97
sVsizediff
p98
I-12
sVpageid
p99
I11389480
sVtitle
p100
VWikipedia talk:Requests for arbitration/Hkelkar 2/Proposed decision
p101
sVtimestamp
p102
V2007-06-19T02:45:28Z
p103
sVtags
p104
(lp105
sVuserid
p106
I591624
sVrevid
p107
I139119477
sVuser
p108
VRama's Arrow
p109
sVparentid
p110
I139119409
sVns
p111
I5
sVsize
p112
I74538
sa(dp113
Vcomment
p114
V/* Final statement */ my statement is separate from anything that could be removed for being "inappropriate"
p115
sVsizediff
p116
I12
sVpageid
p117
I11389480
sVtitle
p118
VWikipedia talk:Requests for arbitration/Hkelkar 2/Proposed decision
p119
sVtimestamp
p120
V2007-06-19T02:44:55Z
p121
sVtags
p122
(lp123
sVuserid
p124
I591624
sVrevid
p125
I139119409
sVuser
p126
VRama's Arrow
p127
sVparentid
p128
I139119377
sVns
p129
I5
sVsize
p130
I74550
sa(dp131
Vcomment
p132
V/* Final statement */ I can't stop laughing :)
p133
sVsizediff
p134
I459
sVpageid
p135
I11389480
sVtitle
p136
VWikipedia talk:Requests for arbitration/Hkelkar 2/Proposed decision
p137
sVtimestamp
p138
V2007-06-19T02:43:02Z
p139
sVtags
p140
(lp141
sVuserid
p142
I591624
sVrevid
p143
I139119150
sVuser
p144
VRama's Arrow
p145
sVparentid
p146
I139119014
sVns
p147
I5
sVsize
p148
I73580
sa(dp149
Vcomment
p150
V/* Final statement */ lol
p151
sVsizediff
p152
I981
sVpageid
p153
I11389480
sVtitle
p154
VWikipedia talk:Requests for arbitration/Hkelkar 2/Proposed decision
p155
sVtimestamp
p156
V2007-06-19T02:22:31Z
p157
sVtags
p158
(lp159
sVuserid
p160
I591624
sVrevid
p161
I139116348
sVuser
p162
VRama's Arrow
p163
sVparentid
p164
I139113487
sVns
p165
I5
sVsize
p166
I70705
sa(dp167
Vcomment
p168
V/* Final statement */ reply
p169
sVsizediff
p170
I440
sVpageid
p171
I11389480
sVtitle
p172
VWikipedia talk:Requests for arbitration/Hkelkar 2/Proposed decision
p173
sVtimestamp
p174
V2007-06-19T01:54:27Z
p175
sVtags
p176
(lp177
sVuserid
p178
I591624
sVrevid
p179
I139112250
sVuser
p180
VRama's Arrow
p181
sVparentid
p182
I139111738
sVns
p183
I5
sVsize
p184
I66838
sa(dp185
Vcomment
p186
V/* Final statement */ added
p187
sVsizediff
p188
I179
sVpageid
p189
I11389480
sVtitle
p190
VWikipedia talk:Requests for arbitration/Hkelkar 2/Proposed decision
p191
sVtimestamp
p192
V2007-06-19T01:51:03Z
p193
sVtags
p194
(lp195
sVuserid
p196
I591624
sVrevid
p197
I139111738
sVuser
p198
VRama's Arrow
p199
sVparentid
p200
I139111445
sVns
p201
I5
sVsize
p202
I66398
sa(dp203
Vcomment
p204
VFinal statement
p205
sVsizediff
p206
I1636
sVpageid
p207
I11389480
sVtitle
p208
VWikipedia talk:Requests for arbitration/Hkelkar 2/Proposed decision
p209
sVtimestamp
p210
V2007-06-19T01:49:14Z
p211
sVtags
p212
(lp213
sVuserid
p214
I591624
sVrevid
p215
I139111445
sVuser
p216
VRama's Arrow
p217
sVparentid
p218
I139111353
sVns
p219
I5
sVsize
p220
I66219
sa(dp221
Vcomment
p222
V/* Blnguyen */ :'''Blnguyen - for the final time, THE BLOCKS WERE PLACED BY OTHER ADMINS AFTER A DISCUSSION ON ANI - 3 UN-INVOLVED ADMINS APPROVED THE DECISION. YOU DID NOT HAVE A RIGHT TO UN-DO CONSE
p223
sVsizediff
p224
I380
sVpageid
p225
I11389480
sVtitle
p226
VWikipedia talk:Requests for arbitration/Hkelkar 2/Proposed decision
p227
sVtimestamp
p228
V2007-06-19T01:34:54Z
p229
sVtags
p230
(lp231
sVuserid
p232
I591624
sVrevid
p233
I139109196
sVuser
p234
VRama's Arrow
p235
sVparentid
p236
I139108616
sVns
p237
I5
sVsize
p238
I63916
sa(dp239
Vcomment
p240
V/* Blnguyen */ ::Your proposal to desysopp me did nothing to provoke me against Blnguyen. It was your abuse of your position as an admin and arbitrator that was the final straw. ~~~~
p241
sVsizediff
p242
I277
sVpageid
p243
I11389480
sVtitle
p244
VWikipedia talk:Requests for arbitration/Hkelkar 2/Proposed decision
p245
sVtimestamp
p246
V2007-06-19T01:26:44Z
p247
sVtags
p248
(lp249
sVuserid
p250
I591624
sVrevid
p251
I139107782
sVuser
p252
VRama's Arrow
p253
sVparentid
p254
I139107342
sVns
p255
I5
sVsize
p256
I62108
sa(dp257
Vcomment
p258
V/* Blnguyen */ reply
p259
sVsizediff
p260
I474
sVpageid
p261
I11389480
sVtitle
p262
VWikipedia talk:Requests for arbitration/Hkelkar 2/Proposed decision
p263
sVtimestamp
p264
V2007-06-19T01:24:26Z
p265
sVtags
p266
(lp267
sVuserid
p268
I591624
sVrevid
p269
I139107342
sVuser
p270
VRama's Arrow
p271
sVparentid
p272
I139106697
sVns
p273
I5
sVsize
p274
I61831
sa(dp275
Vcomment
p276
V/* Blnguyen */ added
p277
sVsizediff
p278
I980
sVpageid
p279
I11389480
sVtitle
p280
VWikipedia talk:Requests for arbitration/Hkelkar 2/Proposed decision
p281
sVtimestamp
p282
V2007-06-19T01:20:26Z
p283
sVtags
p284
(lp285
sVuserid
p286
I591624
sVrevid
p287
I139106697
sVuser
p288
VRama's Arrow
p289
sVparentid
p290
I139106050
sVns
p291
I5
sVsize
p292
I61357
sass.