(dp0
S'Robdurbar'
p1
(dp2
S'before_block'
p3
(lp4
(dp5
Vcomment
p6
VUnprotected Main Page
p7
sVsizediff
p8
I0
sVpageid
p9
I15580374
sVtitle
p10
VMain Page
p11
sVtimestamp
p12
V2007-04-19T10:13:39Z
p13
sVtags
p14
(lp15
sVuserid
p16
I320488
sVrevid
p17
I124048673
sVuser
p18
VRobdurbar
p19
sVparentid
p20
I124048662
sVns
p21
I0
sVsize
p22
I27
sa(dp23
Vcomment
p24
V[[WP:AES|\u2190]]Replaced page with 'how long can i keep this up'
p25
sVsizediff
p26
I-4174
sVpageid
p27
I15580374
sVtitle
p28
VMain Page
p29
sVtimestamp
p30
V2007-04-19T10:13:32Z
p31
sVtags
p32
(lp33
sVuserid
p34
I320488
sVrevid
p35
I124048662
sVuser
p36
VRobdurbar
p37
sVparentid
p38
I124048656
sVns
p39
I0
sVsize
p40
I27
sa(dp41
Vcomment
p42
VProtected Main Page [edit=sysop:move=sysop]
p43
sVsizediff
p44
I0
sVpageid
p45
I15580374
sVtitle
p46
VMain Page
p47
sVtimestamp
p48
V2007-04-19T10:08:00Z
p49
sVtags
p50
(lp51
sVuserid
p52
I320488
sVrevid
p53
I124047972
sVuser
p54
VRobdurbar
p55
sVparentid
p56
I124047960
sVns
p57
I0
sVsize
p58
I27
sa(dp59
Vcomment
p60
V[[WP:AES|\u2190]]Created page with 'Welcome!  DO what you will!'
p61
sVsizediff
p62
I-4174
sVpageid
p63
I15580374
sVtitle
p64
VMain Page
p65
sVtimestamp
p66
V2007-04-19T10:07:53Z
p67
sVtags
p68
(lp69
sVuserid
p70
I320488
sVrevid
p71
I124047960
sVuser
p72
VRobdurbar
p73
sVparentid
p74
I124047878
sVns
p75
I0
sVsize
p76
I27
sa(dp77
Vcomment
p78
V[[WP:AES|\u2190]]Created page with 'LOOOOKKKKKKK'
p79
sVsizediff
p80
I-4189
sVpageid
p81
I15580374
sVtitle
p82
VMain Page
p83
sVtimestamp
p84
V2007-04-19T10:04:00Z
p85
sVtags
p86
(lp87
sVuserid
p88
I320488
sVrevid
p89
I124047566
sVuser
p90
VRobdurbar
p91
sVparentid
p92
I119580560
sVns
p93
I0
sVsize
p94
I12
sa(dp95
Vcomment
p96
VUnprotected Cheese
p97
sVsizediff
p98
I0
sVpageid
p99
I11749910
sVtitle
p100
VCheese
p101
sVtimestamp
p102
V2007-04-19T09:57:52Z
p103
sVtags
p104
(lp105
sVuserid
p106
I320488
sVrevid
p107
I124047156
sVuser
p108
VRobdurbar
p109
sVparentid
p110
I123763678
sVns
p111
I0
sVsize
p112
I45843
sa(dp113
Vcomment
p114
VReverted edits by [[Special:Contributions/Barrygibb|Barrygibb]] ([[User talk:Barrygibb|talk]]) to last version by Robdurbar
p115
sVsizediff
p116
I8
sVpageid
p117
I1291598
sVtitle
p118
VList of best-selling music artists
p119
sVtimestamp
p120
V2007-03-01T11:48:36Z
p121
sVtags
p122
(lp123
sVuserid
p124
I320488
sVrevid
p125
I111807531
sVuser
p126
VRobdurbar
p127
sVparentid
p128
I111750579
sVns
p129
I0
sVsize
p130
I36959
sa(dp131
Vcomment
p132
VReverted edits by [[Special:Contributions/213.120.81.205|213.120.81.205]] ([[User talk:213.120.81.205|talk]]) to last version by 81.109.146.44
p133
sVsizediff
p134
I-68
sVpageid
p135
I341294
sVtitle
p136
VChris Moyles
p137
sVtimestamp
p138
V2007-03-01T11:39:17Z
p139
sVtags
p140
(lp141
sVuserid
p142
I320488
sVrevid
p143
I111806492
sVuser
p144
VRobdurbar
p145
sVparentid
p146
I111806387
sVns
p147
I0
sVsize
p148
I28517
sa(dp149
Vcomment
p150
V/* The End */  remove opinionated, unencyclopedic
p151
sVsizediff
p152
I-3579
sVpageid
p153
I357309
sVtitle
p154
VBrookside
p155
sVtimestamp
p156
V2007-02-28T19:38:03Z
p157
sVtags
p158
(lp159
sVuserid
p160
I320488
sVrevid
p161
I111642376
sVuser
p162
VRobdurbar
p163
sVparentid
p164
I110163248
sVns
p165
I0
sVsize
p166
I19765
sa(dp167
Vcomment
p168
Vresponse
p169
sVsizediff
p170
I268
sVpageid
p171
I9741287
sVtitle
p172
VWikipedia:Articles for deletion/Robert J. Gorman
p173
sVtimestamp
p174
V2007-02-28T18:35:15Z
p175
sVtags
p176
(lp177
sVuserid
p178
I320488
sVrevid
p179
I111628432
sVuser
p180
VRobdurbar
p181
sVparentid
p182
I111593386
sVns
p183
I4
sVsize
p184
I5581
sa(dp185
Vcomment
p186
VReverted edits by [[Special:Contributions/86.146.4.170|86.146.4.170]] ([[User talk:86.146.4.170|talk]]) to last version by Robdurbar
p187
sVsizediff
p188
I-30
sVpageid
p189
I2144137
sVtitle
p190
VDominic Byrne
p191
sVtimestamp
p192
V2007-02-28T18:31:01Z
p193
sVtags
p194
(lp195
sVuserid
p196
I320488
sVrevid
p197
I111627508
sVuser
p198
VRobdurbar
p199
sVparentid
p200
I111610402
sVns
p201
I0
sVsize
p202
I1918
sa(dp203
Vcomment
p204
VReverted edits by [[Special:Contributions/207.112.83.195|207.112.83.195]] ([[User talk:207.112.83.195|talk]]) to last version by Tidy
p205
sVsizediff
p206
I46
sVpageid
p207
I1720451
sVtitle
p208
VArctic Monkeys
p209
sVtimestamp
p210
V2007-02-28T18:28:57Z
p211
sVtags
p212
(lp213
sVuserid
p214
I320488
sVrevid
p215
I111626970
sVuser
p216
VRobdurbar
p217
sVparentid
p218
I111582601
sVns
p219
I0
sVsize
p220
I41590
sa(dp221
Vcomment
p222
VReverted edits by [[Special:Contributions/74.107.119.203|74.107.119.203]] ([[User talk:74.107.119.203|talk]]) to last version by 81.155.245.214
p223
sVsizediff
p224
I-66
sVpageid
p225
I1291598
sVtitle
p226
VList of best-selling music artists
p227
sVtimestamp
p228
V2007-02-28T13:53:52Z
p229
sVtags
p230
(lp231
sVuserid
p232
I320488
sVrevid
p233
I111573568
sVuser
p234
VRobdurbar
p235
sVparentid
p236
I111458808
sVns
p237
I0
sVsize
p238
I36959
sa(dp239
Vcomment
p240
VReverted edits by [[Special:Contributions/81.204.77.87|81.204.77.87]] ([[User talk:81.204.77.87|talk]]) to last version by Robdurbar
p241
sVsizediff
p242
I6
sVpageid
p243
I1291598
sVtitle
p244
VList of best-selling music artists
p245
sVtimestamp
p246
V2007-02-27T17:36:32Z
p247
sVtags
p248
(lp249
sVuserid
p250
I320488
sVrevid
p251
I111366444
sVuser
p252
VRobdurbar
p253
sVparentid
p254
I111347654
sVns
p255
I0
sVsize
p256
I36839
sa(dp257
Vcomment
p258
VReverted edits by [[Special:Contributions/198.99.68.146|198.99.68.146]] ([[User talk:198.99.68.146|talk]]) to last version by 89.241.165.22
p259
sVsizediff
p260
I-335
sVpageid
p261
I291743
sVtitle
p262
VWhitehaven
p263
sVtimestamp
p264
V2007-02-27T17:35:29Z
p265
sVtags
p266
(lp267
sVuserid
p268
I320488
sVrevid
p269
I111366219
sVuser
p270
VRobdurbar
p271
sVparentid
p272
I111355835
sVns
p273
I0
sVsize
p274
I9250
sa(dp275
Vcomment
p276
V[[WP:AES|\u2190]]Undid revision 111309995 by [[Special:Contributions/195.194.74.189|195.194.74.189]] ([[User talk:195.194.74.189|talk]])
p277
sVsizediff
p278
I6
sVpageid
p279
I9904
sVtitle
p280
VEngland national football team
p281
sVtimestamp
p282
V2007-02-27T15:39:36Z
p283
sVtags
p284
(lp285
sVuserid
p286
I320488
sVrevid
p287
I111342949
sVuser
p288
VRobdurbar
p289
sVparentid
p290
I111342628
sVns
p291
I0
sVsize
p292
I47363
sa(dp293
Vcomment
p294
V[[WP:AES|\u2190]]Undid revision 111310189 by [[Special:Contributions/195.194.74.189|195.194.74.189]] ([[User talk:195.194.74.189|talk]])
p295
sVsizediff
p296
I2
sVpageid
p297
I9904
sVtitle
p298
VEngland national football team
p299
sVtimestamp
p300
V2007-02-27T15:37:47Z
p301
sVtags
p302
(lp303
sVuserid
p304
I320488
sVrevid
p305
I111342628
sVuser
p306
VRobdurbar
p307
sVparentid
p308
I111315128
sVns
p309
I0
sVsize
p310
I47357
sa(dp311
Vcomment
p312
V/* {{la|History of Nagorno-Karabakh}} */  {{RFPP|d}}
p313
sVsizediff
p314
I72
sVpageid
p315
I352651
sVtitle
p316
VWikipedia:Requests for page protection
p317
sVtimestamp
p318
V2007-02-27T09:17:50Z
p319
sVtags
p320
(lp321
sVuserid
p322
I320488
sVrevid
p323
I111294043
sVuser
p324
VRobdurbar
p325
sVparentid
p326
I111293850
sVns
p327
I4
sVsize
p328
I40058
sa(dp329
Vcomment
p330
V/* Current requests for protection */  lots of {{RFPP|s}} today
p331
sVsizediff
p332
I146
sVpageid
p333
I352651
sVtitle
p334
VWikipedia:Requests for page protection
p335
sVtimestamp
p336
V2007-02-27T09:15:41Z
p337
sVtags
p338
(lp339
sVuserid
p340
I320488
sVrevid
p341
I111293850
sVuser
p342
VRobdurbar
p343
sVparentid
p344
I111293569
sVns
p345
I4
sVsize
p346
I39986
sa(dp347
Vcomment
p348
Vsprotect
p349
sVsizediff
p350
I13
sVpageid
p351
I1494475
sVtitle
p352
VJedi Exile
p353
sVtimestamp
p354
V2007-02-27T09:15:23Z
p355
sVtags
p356
(lp357
sVuserid
p358
I320488
sVrevid
p359
I111293820
sVuser
p360
VRobdurbar
p361
sVparentid
p362
I111293737
sVns
p363
I0
sVsize
p364
I23767
sa(dp365
Vcomment
p366
VProtected Jedi Exile: disruption from ips [edit=autoconfirmed:move=autoconfirmed]
p367
sVsizediff
p368
I0
sVpageid
p369
I1494475
sVtitle
p370
VJedi Exile
p371
sVtimestamp
p372
V2007-02-27T09:14:30Z
p373
sVtags
p374
(lp375
sVuserid
p376
I320488
sVrevid
p377
I111293737
sVuser
p378
VRobdurbar
p379
sVparentid
p380
I111286126
sVns
p381
I0
sVsize
p382
I23754
sa(dp383
Vcomment
p384
Vsprotect
p385
sVsizediff
p386
I13
sVpageid
p387
I5222
sVtitle
p388
VColombia
p389
sVtimestamp
p390
V2007-02-27T09:13:18Z
p391
sVtags
p392
(lp393
sVuserid
p394
I320488
sVrevid
p395
I111293628
sVuser
p396
VRobdurbar
p397
sVparentid
p398
I111293555
sVns
p399
I0
sVsize
p400
I48792
sa(dp401
Vcomment
p402
Vsprotect
p403
sVsizediff
p404
I13
sVpageid
p405
I1028460
sVtitle
p406
VDeath Note
p407
sVtimestamp
p408
V2007-02-27T09:12:57Z
p409
sVtags
p410
(lp411
sVuserid
p412
I320488
sVrevid
p413
I111293590
sVuser
p414
VRobdurbar
p415
sVparentid
p416
I111293491
sVns
p417
I0
sVsize
p418
I35119
sa(dp419
Vcomment
p420
V/* {{la|Death Note}} */  {{RFPP|s}}
p421
sVsizediff
p422
I73
sVpageid
p423
I352651
sVtitle
p424
VWikipedia:Requests for page protection
p425
sVtimestamp
p426
V2007-02-27T09:12:35Z
p427
sVtags
p428
(lp429
sVuserid
p430
I320488
sVrevid
p431
I111293569
sVuser
p432
VRobdurbar
p433
sVparentid
p434
I111293414
sVns
p435
I4
sVsize
p436
I39840
sa(dp437
Vcomment
p438
VProtected Colombia: vandalism from multiple ips [edit=autoconfirmed:move=autoconfirmed] (expires 09:12, 13 March 2007 (UTC))
p439
sVsizediff
p440
I0
sVpageid
p441
I5222
sVtitle
p442
VColombia
p443
sVtimestamp
p444
V2007-02-27T09:12:25Z
p445
sVtags
p446
(lp447
sVuserid
p448
I320488
sVrevid
p449
I111293555
sVuser
p450
VRobdurbar
p451
sVparentid
p452
I111273262
sVns
p453
I0
sVsize
p454
I48779
sa(dp455
Vcomment
p456
VProtected Death Note: ip disruption [edit=autoconfirmed:move=autoconfirmed] (expires 09:11, 13 March 2007 (UTC))
p457
sVsizediff
p458
I0
sVpageid
p459
I1028460
sVtitle
p460
VDeath Note
p461
sVtimestamp
p462
V2007-02-27T09:11:41Z
p463
sVtags
p464
(lp465
sVuserid
p466
I320488
sVrevid
p467
I111293491
sVuser
p468
VRobdurbar
p469
sVparentid
p470
I111179261
sVns
p471
I0
sVsize
p472
I35106
sa(dp473
Vcomment
p474
Vsprotect
p475
sVsizediff
p476
I13
sVpageid
p477
I8117017
sVtitle
p478
VBishop Sullivan Catholic High School
p479
sVtimestamp
p480
V2007-02-27T09:11:06Z
p481
sVtags
p482
(lp483
sVuserid
p484
I320488
sVrevid
p485
I111293432
sVuser
p486
VRobdurbar
p487
sVparentid
p488
I111293358
sVns
p489
I0
sVsize
p490
I3913
sa(dp491
Vcomment
p492
V/* {{la|Bishop Sullivan Catholic High School}}= */  {{RFPP|s}}
p493
sVsizediff
p494
I73
sVpageid
p495
I352651
sVtitle
p496
VWikipedia:Requests for page protection
p497
sVtimestamp
p498
V2007-02-27T09:10:50Z
p499
sVtags
p500
(lp501
sVuserid
p502
I320488
sVrevid
p503
I111293414
sVuser
p504
VRobdurbar
p505
sVparentid
p506
I111293137
sVns
p507
I4
sVsize
p508
I39767
sa(dp509
Vcomment
p510
VProtected Bishop Sullivan Catholic High School: vandalism; in news letting it die down [edit=autoconfirmed:move=autoconfirmed] (expires 09:10, 13 March 2007 (UTC))
p511
sVsizediff
p512
I0
sVpageid
p513
I8117017
sVtitle
p514
VBishop Sullivan Catholic High School
p515
sVtimestamp
p516
V2007-02-27T09:10:18Z
p517
sVtags
p518
(lp519
sVuserid
p520
I320488
sVrevid
p521
I111293358
sVuser
p522
VRobdurbar
p523
sVparentid
p524
I111199290
sVns
p525
I0
sVsize
p526
I3900
sa(dp527
Vcomment
p528
Vsprotect 2
p529
sVsizediff
p530
I14
sVpageid
p531
I6037917
sVtitle
p532
VIslam
p533
sVtimestamp
p534
V2007-02-27T09:08:55Z
p535
sVtags
p536
(lp537
sVuserid
p538
I320488
sVrevid
p539
I111293234
sVuser
p540
VRobdurbar
p541
sVparentid
p542
I111293103
sVns
p543
I0
sVsize
p544
I119136
sa(dp545
Vcomment
p546
V/* {{la|Islam}} */  {{RFPP|s}}
p547
sVsizediff
p548
I74
sVpageid
p549
I352651
sVtitle
p550
VWikipedia:Requests for page protection
p551
sVtimestamp
p552
V2007-02-27T09:07:58Z
p553
sVtags
p554
(lp555
sVuserid
p556
I320488
sVrevid
p557
I111293137
sVuser
p558
VRobdurbar
p559
sVparentid
p560
I111293059
sVns
p561
I4
sVsize
p562
I39694
sa(dp563
Vcomment
p564
VProtected Islam: well there's been a couple of days off [edit=autoconfirmed:move=autoconfirmed]
p565
sVsizediff
p566
I0
sVpageid
p567
I6037917
sVtitle
p568
VIslam
p569
sVtimestamp
p570
V2007-02-27T09:07:40Z
p571
sVtags
p572
(lp573
sVuserid
p574
I320488
sVrevid
p575
I111293103
sVuser
p576
VRobdurbar
p577
sVparentid
p578
I111266838
sVns
p579
I0
sVsize
p580
I119122
sa(dp581
Vcomment
p582
V/* {{lat|Anaheim Hills, Anaheim, California}} */  {{RFPP|ap}}
p583
sVsizediff
p584
I306
sVpageid
p585
I352651
sVtitle
p586
VWikipedia:Requests for page protection
p587
sVtimestamp
p588
V2007-02-27T09:07:07Z
p589
sVtags
p590
(lp591
sVuserid
p592
I320488
sVrevid
p593
I111293059
sVuser
p594
VRobdurbar
p595
sVparentid
p596
I111292943
sVns
p597
I4
sVsize
p598
I39620
sa(dp599
Vcomment
p600
Vsemied
p601
sVsizediff
p602
I13
sVpageid
p603
I822177
sVtitle
p604
VRogue (musician)
p605
sVtimestamp
p606
V2007-02-27T09:06:06Z
p607
sVtags
p608
(lp609
sVuserid
p610
I320488
sVrevid
p611
I111292958
sVuser
p612
VRobdurbar
p613
sVparentid
p614
I111292861
sVns
p615
I0
sVsize
p616
I6133
sa(dp617
Vcomment
p618
V/* {{la|Rogue (musician)}} */  {{RFPP|s}}
p619
sVsizediff
p620
I128
sVpageid
p621
I352651
sVtitle
p622
VWikipedia:Requests for page protection
p623
sVtimestamp
p624
V2007-02-27T09:05:57Z
p625
sVtags
p626
(lp627
sVuserid
p628
I320488
sVrevid
p629
I111292943
sVuser
p630
VRobdurbar
p631
sVparentid
p632
I111291363
sVns
p633
I4
sVsize
p634
I39314
sa(dp635
Vcomment
p636
VProtected Rogue (musician): as before, continued disruption [edit=autoconfirmed:move=autoconfirmed]
p637
sVsizediff
p638
I0
sVpageid
p639
I822177
sVtitle
p640
VRogue (musician)
p641
sVtimestamp
p642
V2007-02-27T09:05:07Z
p643
sVtags
p644
(lp645
sVuserid
p646
I320488
sVrevid
p647
I111292861
sVuser
p648
VRobdurbar
p649
sVparentid
p650
I111251894
sVns
p651
I0
sVsize
p652
I6120
sa(dp653
Vcomment
p654
VThe Appraisal Foundation,  Robert C. Gorman, Robert J. Gorman
p655
sVsizediff
p656
I167
sVpageid
p657
I9700260
sVtitle
p658
VWikipedia:Articles for deletion/Log/2007 February 26
p659
sVtimestamp
p660
V2007-02-27T00:04:14Z
p661
sVtags
p662
(lp663
sVuserid
p664
I320488
sVrevid
p665
I111203188
sVuser
p666
VRobdurbar
p667
sVparentid
p668
I111202286
sVns
p669
I4
sVsize
p670
I6815
sa(dp671
Vcomment
p672
Vfix page
p673
sVsizediff
p674
I-43
sVpageid
p675
I9741287
sVtitle
p676
VWikipedia:Articles for deletion/Robert J. Gorman
p677
sVtimestamp
p678
V2007-02-27T00:01:20Z
p679
sVtags
p680
(lp681
sVuserid
p682
I320488
sVrevid
p683
I111202530
sVuser
p684
VRobdurbar
p685
sVparentid
p686
I111201557
sVns
p687
I4
sVsize
p688
I769
sa(dp689
Vcomment
p690
Vnominate for deletion
p691
sVsizediff
p692
I557
sVpageid
p693
I9741331
sVtitle
p694
VWikipedia:Articles for deletion/The Appraisal Foundation
p695
sVtimestamp
p696
V2007-02-26T23:59:50Z
p697
sVtags
p698
(lp699
sVuserid
p700
I320488
sVrevid
p701
I111202178
sVuser
p702
VRobdurbar
p703
sVparentid
p704
I0
sVns
p705
I4
sVsize
p706
I557
sa(dp707
Vcomment
p708
Vnominating for deletion
p709
sVsizediff
p710
I812
sVpageid
p711
I9741287
sVtitle
p712
VWikipedia:Articles for deletion/Robert J. Gorman
p713
sVtimestamp
p714
V2007-02-26T23:56:58Z
p715
sVtags
p716
(lp717
sVuserid
p718
I320488
sVrevid
p719
I111201557
sVuser
p720
VRobdurbar
p721
sVparentid
p722
I0
sVns
p723
I4
sVsize
p724
I812
sass.