(dp0
S'Runcorn'
p1
(dp2
S'before_block'
p3
(lp4
(dp5
Vcomment
p6
VRestore: part of wider discussion
p7
sVsizediff
p8
I389
sVpageid
p9
I625498
sVtitle
p10
VLondon N14
p11
sVtimestamp
p12
V2007-05-29T20:04:33Z
p13
sVtags
p14
(lp15
sVuserid
p16
I714774
sVrevid
p17
I134391705
sVuser
p18
VRuncorn
p19
sVparentid
p20
I134099910
sVns
p21
I0
sVsize
p22
I418
sa(dp23
Vcomment
p24
Vnew cat
p25
sVsizediff
p26
I298
sVpageid
p27
I11485047
sVtitle
p28
VCategory:Estonian football biography stubs
p29
sVtimestamp
p30
V2007-05-29T12:56:15Z
p31
sVtags
p32
(lp33
sVuserid
p34
I714774
sVrevid
p35
I134307339
sVuser
p36
VRuncorn
p37
sVparentid
p38
I0
sVns
p39
I14
sVsize
p40
I298
sa(dp41
Vcomment
p42
VMove to category
p43
sVsizediff
p44
I-299
sVpageid
p45
I10368514
sVtitle
p46
VTemplate:Estonia-footy-bio-stub
p47
sVtimestamp
p48
V2007-05-29T12:55:53Z
p49
sVtags
p50
(lp51
sVuserid
p52
I714774
sVrevid
p53
I134307284
sVuser
p54
VRuncorn
p55
sVparentid
p56
I134307143
sVns
p57
I10
sVsize
p58
I393
sa(dp59
Vcomment
p60
VNew category
p61
sVsizediff
p62
I299
sVpageid
p63
I10368514
sVtitle
p64
VTemplate:Estonia-footy-bio-stub
p65
sVtimestamp
p66
V2007-05-29T12:54:59Z
p67
sVtags
p68
(lp69
sVuserid
p70
I714774
sVrevid
p71
I134307143
sVuser
p72
VRuncorn
p73
sVparentid
p74
I134306855
sVns
p75
I10
sVsize
p76
I692
sa(dp77
Vcomment
p78
VFixed template
p79
sVsizediff
p80
I-60
sVpageid
p81
I10368514
sVtitle
p82
VTemplate:Estonia-footy-bio-stub
p83
sVtimestamp
p84
V2007-05-29T12:53:02Z
p85
sVtags
p86
(lp87
sVuserid
p88
I714774
sVrevid
p89
I134306855
sVuser
p90
VRuncorn
p91
sVparentid
p92
I133621778
sVns
p93
I10
sVsize
p94
I393
sa(dp95
Vcomment
p96
V+cat
p97
sVsizediff
p98
I42
sVpageid
p99
I9425418
sVtitle
p100
VMartin Kaalma
p101
sVtimestamp
p102
V2007-05-29T12:50:52Z
p103
sVtags
p104
(lp105
sVuserid
p106
I714774
sVrevid
p107
I134306488
sVuser
p108
VRuncorn
p109
sVparentid
p110
I119015847
sVns
p111
I0
sVsize
p112
I604
sa(dp113
Vcomment
p114
VRestored accidentally-deleted edit
p115
sVsizediff
p116
I111
sVpageid
p117
I5032588
sVtitle
p118
VBernhard Neumann
p119
sVtimestamp
p120
V2007-05-29T12:46:39Z
p121
sVtags
p122
(lp123
sVuserid
p124
I714774
sVrevid
p125
I134305832
sVuser
p126
VRuncorn
p127
sVparentid
p128
I134305694
sVns
p129
I0
sVsize
p130
I2178
sa(dp131
Vcomment
p132
VMore specific cat
p133
sVsizediff
p134
I-98
sVpageid
p135
I5032588
sVtitle
p136
VBernhard Neumann
p137
sVtimestamp
p138
V2007-05-29T12:45:43Z
p139
sVtags
p140
(lp141
sVuserid
p142
I714774
sVrevid
p143
I134305694
sVuser
p144
VRuncorn
p145
sVparentid
p146
I134292368
sVns
p147
I0
sVsize
p148
I2067
sa(dp149
Vcomment
p150
VNot true everywhere, e.g. the United Kingdom
p151
sVsizediff
p152
I11
sVpageid
p153
I47127
sVtitle
p154
VBaby boomers
p155
sVtimestamp
p156
V2007-05-29T12:37:35Z
p157
sVtags
p158
(lp159
sVuserid
p160
I714774
sVrevid
p161
I134304404
sVuser
p162
VRuncorn
p163
sVparentid
p164
I134182575
sVns
p165
I0
sVsize
p166
I20744
sa(dp167
Vcomment
p168
VRV per recent AfD
p169
sVsizediff
p170
I238
sVpageid
p171
I2475059
sVtitle
p172
VLondon SE20
p173
sVtimestamp
p174
V2007-05-28T19:57:25Z
p175
sVtags
p176
(lp177
sVuserid
p178
I714774
sVrevid
p179
I134147459
sVuser
p180
VRuncorn
p181
sVparentid
p182
I134098250
sVns
p183
I0
sVsize
p184
I268
sa(dp185
Vcomment
p186
VRV per recent AfD
p187
sVsizediff
p188
I697
sVpageid
p189
I5612707
sVtitle
p190
VLondon N9
p191
sVtimestamp
p192
V2007-05-28T19:56:59Z
p193
sVtags
p194
(lp195
sVuserid
p196
I714774
sVrevid
p197
I134147380
sVuser
p198
VRuncorn
p199
sVparentid
p200
I134099707
sVns
p201
I0
sVsize
p202
I726
sa(dp203
Vcomment
p204
VRV per recent AfD
p205
sVsizediff
p206
I319
sVpageid
p207
I5050222
sVtitle
p208
VLondon N11
p209
sVtimestamp
p210
V2007-05-28T19:56:22Z
p211
sVtags
p212
(lp213
sVuserid
p214
I714774
sVrevid
p215
I134147253
sVuser
p216
VRuncorn
p217
sVparentid
p218
I134099770
sVns
p219
I0
sVsize
p220
I348
sa(dp221
Vcomment
p222
VRV per recent AfD
p223
sVsizediff
p224
I292
sVpageid
p225
I2957237
sVtitle
p226
VLondon N13
p227
sVtimestamp
p228
V2007-05-28T19:55:52Z
p229
sVtags
p230
(lp231
sVuserid
p232
I714774
sVrevid
p233
I134147137
sVuser
p234
VRuncorn
p235
sVparentid
p236
I134099864
sVns
p237
I0
sVsize
p238
I321
sa(dp239
Vcomment
p240
VRV per recent AfD
p241
sVsizediff
p242
I380
sVpageid
p243
I1982925
sVtitle
p244
VLondon N12
p245
sVtimestamp
p246
V2007-05-28T19:55:11Z
p247
sVtags
p248
(lp249
sVuserid
p250
I714774
sVrevid
p251
I134146969
sVuser
p252
VRuncorn
p253
sVparentid
p254
I134099812
sVns
p255
I0
sVsize
p256
I409
sa(dp257
Vcomment
p258
VRV per recent AfD
p259
sVsizediff
p260
I430
sVpageid
p261
I1948940
sVtitle
p262
VLondon N8
p263
sVtimestamp
p264
V2007-05-28T19:54:39Z
p265
sVtags
p266
(lp267
sVuserid
p268
I714774
sVrevid
p269
I134146854
sVuser
p270
VRuncorn
p271
sVparentid
p272
I134099639
sVns
p273
I0
sVsize
p274
I459
sa(dp275
Vcomment
p276
VRV per recent AfD
p277
sVsizediff
p278
I234
sVpageid
p279
I1943841
sVtitle
p280
VLondon N6
p281
sVtimestamp
p282
V2007-05-28T19:54:10Z
p283
sVtags
p284
(lp285
sVuserid
p286
I714774
sVrevid
p287
I134146733
sVuser
p288
VRuncorn
p289
sVparentid
p290
I134099595
sVns
p291
I0
sVsize
p292
I263
sa(dp293
Vcomment
p294
VRV per recent AfD
p295
sVsizediff
p296
I449
sVpageid
p297
I1905071
sVtitle
p298
VLondon N3
p299
sVtimestamp
p300
V2007-05-28T19:53:32Z
p301
sVtags
p302
(lp303
sVuserid
p304
I714774
sVrevid
p305
I134146592
sVuser
p306
VRuncorn
p307
sVparentid
p308
I134099531
sVns
p309
I0
sVsize
p310
I478
sa(dp311
Vcomment
p312
VRV per recent AfD
p313
sVsizediff
p314
I211
sVpageid
p315
I1934233
sVtitle
p316
VLondon N2
p317
sVtimestamp
p318
V2007-05-28T19:49:25Z
p319
sVtags
p320
(lp321
sVuserid
p322
I714774
sVrevid
p323
I134145688
sVuser
p324
VRuncorn
p325
sVparentid
p326
I134099494
sVns
p327
I0
sVsize
p328
I240
sa(dp329
Vcomment
p330
V/* New Policy */ JzG has deleted the proposal and blocked the author
p331
sVsizediff
p332
I109
sVpageid
p333
I986140
sVtitle
p334
VWikipedia:Village pump (policy)
p335
sVtimestamp
p336
V2007-05-28T15:20:14Z
p337
sVtags
p338
(lp339
sVuserid
p340
I714774
sVrevid
p341
I134090785
sVuser
p342
VRuncorn
p343
sVparentid
p344
I134064752
sVns
p345
I4
sVsize
p346
I97904
sa(dp347
Vcomment
p348
VReverted edits by [[Special:Contributions/217.127.135.138|217.127.135.138]] ([[User talk:217.127.135.138|talk]]) to last version by 67.71.179.108
p349
sVsizediff
p350
I-213
sVpageid
p351
I47127
sVtitle
p352
VBaby boomers
p353
sVtimestamp
p354
V2007-05-28T15:18:12Z
p355
sVtags
p356
(lp357
sVuserid
p358
I714774
sVrevid
p359
I134090494
sVuser
p360
VRuncorn
p361
sVparentid
p362
I134056032
sVns
p363
I0
sVsize
p364
I20716
sa(dp365
Vcomment
p366
VGrammar
p367
sVsizediff
p368
I-11
sVpageid
p369
I8222111
sVtitle
p370
VBeal High School
p371
sVtimestamp
p372
V2007-05-28T09:20:34Z
p373
sVtags
p374
(lp375
sVuserid
p376
I714774
sVrevid
p377
I134041714
sVuser
p378
VRuncorn
p379
sVparentid
p380
I133675014
sVns
p381
I0
sVsize
p382
I3443
sa(dp383
Vcomment
p384
VRemove non-existent cat
p385
sVsizediff
p386
I-63
sVpageid
p387
I4264683
sVtitle
p388
VIan Ridpath
p389
sVtimestamp
p390
V2007-05-27T20:12:45Z
p391
sVtags
p392
(lp393
sVuserid
p394
I714774
sVrevid
p395
I133919653
sVuser
p396
VRuncorn
p397
sVparentid
p398
I133913217
sVns
p399
I0
sVsize
p400
I1183
sa(dp401
Vcomment
p402
V/* Baby Boomer websites */ Remove spamlink
p403
sVsizediff
p404
I-86
sVpageid
p405
I47127
sVtitle
p406
VBaby boomers
p407
sVtimestamp
p408
V2007-05-27T20:11:34Z
p409
sVtags
p410
(lp411
sVuserid
p412
I714774
sVrevid
p413
I133919426
sVuser
p414
VRuncorn
p415
sVparentid
p416
I133904668
sVns
p417
I0
sVsize
p418
I20732
sa(dp419
Vcomment
p420
V/* Category:American actors by ethnicity */ Comment
p421
sVsizediff
p422
I260
sVpageid
p423
I10974436
sVtitle
p424
VWikipedia:Categories for discussion/Log/2007 May 25
p425
sVtimestamp
p426
V2007-05-27T19:44:43Z
p427
sVtags
p428
(lp429
sVuserid
p430
I714774
sVrevid
p431
I133913951
sVuser
p432
VRuncorn
p433
sVparentid
p434
I133901176
sVns
p435
I4
sVsize
p436
I85695
sa(dp437
Vcomment
p438
V/* References */ +cat
p439
sVsizediff
p440
I49
sVpageid
p441
I4683446
sVtitle
p442
VLeonard Schapiro
p443
sVtimestamp
p444
V2007-05-26T21:54:57Z
p445
sVtags
p446
(lp447
sVuserid
p448
I714774
sVrevid
p449
I133724836
sVuser
p450
VRuncorn
p451
sVparentid
p452
I103132471
sVns
p453
I0
sVsize
p454
I1452
sa(dp455
Vcomment
p456
V/* Publications */ Cat sorts
p457
sVsizediff
p458
I-96
sVpageid
p459
I9734285
sVtitle
p460
VIsaac Schapera
p461
sVtimestamp
p462
V2007-05-26T21:53:35Z
p463
sVtags
p464
(lp465
sVuserid
p466
I714774
sVrevid
p467
I133724549
sVuser
p468
VRuncorn
p469
sVparentid
p470
I133724321
sVns
p471
I0
sVsize
p472
I2272
sa(dp473
Vcomment
p474
V/* Publications */ Categories
p475
sVsizediff
p476
I29
sVpageid
p477
I9734285
sVtitle
p478
VIsaac Schapera
p479
sVtimestamp
p480
V2007-05-26T21:52:20Z
p481
sVtags
p482
(lp483
sVuserid
p484
I714774
sVrevid
p485
I133724321
sVuser
p486
VRuncorn
p487
sVparentid
p488
I126636745
sVns
p489
I0
sVsize
p490
I2368
sa(dp491
Vcomment
p492
V/* Is users editing other users' stuff permitted? */ Comment
p493
sVsizediff
p494
I206
sVpageid
p495
I986140
sVtitle
p496
VWikipedia:Village pump (policy)
p497
sVtimestamp
p498
V2007-05-26T21:32:53Z
p499
sVtags
p500
(lp501
sVuserid
p502
I714774
sVrevid
p503
I133720580
sVuser
p504
VRuncorn
p505
sVparentid
p506
I133719766
sVns
p507
I4
sVsize
p508
I122218
sa(dp509
Vcomment
p510
V/* Other uses */ grammar
p511
sVsizediff
p512
I-2
sVpageid
p513
I20685
sVtitle
p514
VMichael
p515
sVtimestamp
p516
V2007-05-26T21:29:29Z
p517
sVtags
p518
(lp519
sVuserid
p520
I714774
sVrevid
p521
I133719869
sVuser
p522
VRuncorn
p523
sVparentid
p524
I133713151
sVns
p525
I0
sVsize
p526
I5914
sa(dp527
Vcomment
p528
VReverted edits by [[Special:Contributions/88.203.113.135|88.203.113.135]] ([[User talk:88.203.113.135|talk]]) to last version by 85.157.234.63
p529
sVsizediff
p530
I-4
sVpageid
p531
I201458
sVtitle
p532
VMiniskirt
p533
sVtimestamp
p534
V2007-05-26T16:40:06Z
p535
sVtags
p536
(lp537
sVuserid
p538
I714774
sVrevid
p539
I133665099
sVuser
p540
VRuncorn
p541
sVparentid
p542
I133645883
sVns
p543
I0
sVsize
p544
I9740
sa(dp545
Vcomment
p546
VReverted edits by [[Special:Contributions/69.123.241.27|69.123.241.27]] ([[User talk:69.123.241.27|talk]]) to last version by Runcorn
p547
sVsizediff
p548
I-81
sVpageid
p549
I3260157
sVtitle
p550
VList of Jewish American businesspeople
p551
sVtimestamp
p552
V2007-05-26T16:32:17Z
p553
sVtags
p554
(lp555
sVuserid
p556
I714774
sVrevid
p557
I133663884
sVuser
p558
VRuncorn
p559
sVparentid
p560
I133662528
sVns
p561
I0
sVsize
p562
I1755
sa(dp563
Vcomment
p564
V+cat
p565
sVsizediff
p566
I38
sVpageid
p567
I1945722
sVtitle
p568
VCecil Roth
p569
sVtimestamp
p570
V2007-05-26T11:39:55Z
p571
sVtags
p572
(lp573
sVuserid
p574
I714774
sVrevid
p575
I133622257
sVuser
p576
VRuncorn
p577
sVparentid
p578
I97073454
sVns
p579
I0
sVsize
p580
I1222
sa(dp581
Vcomment
p582
V+cat
p583
sVsizediff
p584
I26
sVpageid
p585
I1185943
sVtitle
p586
VLandon Ronald
p587
sVtimestamp
p588
V2007-05-26T11:18:07Z
p589
sVtags
p590
(lp591
sVuserid
p592
I714774
sVrevid
p593
I133619766
sVuser
p594
VRuncorn
p595
sVparentid
p596
I132841820
sVns
p597
I0
sVsize
p598
I1321
sa(dp599
Vcomment
p600
V/* External links */ Cats
p601
sVsizediff
p602
I157
sVpageid
p603
I11307076
sVtitle
p604
VPaul Fromm (philanthropist)
p605
sVtimestamp
p606
V2007-05-26T08:33:21Z
p607
sVtags
p608
(lp609
sVuserid
p610
I714774
sVrevid
p611
I133602619
sVuser
p612
VRuncorn
p613
sVparentid
p614
I132886999
sVns
p615
I0
sVsize
p616
I2749
sa(dp617
Vcomment
p618
VRemove non-notables
p619
sVsizediff
p620
I-140
sVpageid
p621
I3260157
sVtitle
p622
VList of Jewish American businesspeople
p623
sVtimestamp
p624
V2007-05-26T08:31:19Z
p625
sVtags
p626
(lp627
sVuserid
p628
I714774
sVrevid
p629
I133602421
sVuser
p630
VRuncorn
p631
sVparentid
p632
I133585793
sVns
p633
I0
sVsize
p634
I1755
sa(dp635
Vcomment
p636
VCorrecting punctuation per ref; remove inappropriate trivia tag
p637
sVsizediff
p638
I-10
sVpageid
p639
I20685
sVtitle
p640
VMichael
p641
sVtimestamp
p642
V2007-05-26T07:28:22Z
p643
sVtags
p644
(lp645
sVuserid
p646
I714774
sVrevid
p647
I133595458
sVuser
p648
VRuncorn
p649
sVparentid
p650
I133551418
sVns
p651
I0
sVsize
p652
I5915
sass.