(dp0
S'Sade'
p1
(dp2
S'before_block'
p3
(lp4
(dp5
Vcomment
p6
VCleaned up a little.
p7
sVsizediff
p8
I86
sVpageid
p9
I682195
sVtitle
p10
VAafia Siddiqui
p11
sVtimestamp
p12
V2008-11-20T21:31:24Z
p13
sVtags
p14
(lp15
sVuserid
p16
I128172
sVrevid
p17
I253060706
sVuser
p18
VSade
p19
sVparentid
p20
I252958765
sVns
p21
I0
sVsize
p22
I39383
sa(dp23
Vcomment
p24
V/* User:ForesticPig */ Commented.
p25
sVsizediff
p26
I344
sVpageid
p27
I5137507
sVtitle
p28
VWikipedia:Administrators' noticeboard/Incidents
p29
sVtimestamp
p30
V2008-11-20T21:08:03Z
p31
sVtags
p32
(lp33
sVuserid
p34
I128172
sVrevid
p35
I253056269
sVuser
p36
VSade
p37
sVparentid
p38
I253051305
sVns
p39
I4
sVsize
p40
I377896
sa(dp41
Vcomment
p42
VBalanced with scientific consensus.
p43
sVsizediff
p44
I363
sVpageid
p45
I13464836
sVtitle
p46
VTalk About Curing Autism
p47
sVtimestamp
p48
V2008-11-11T04:21:08Z
p49
sVtags
p50
(lp51
sVuserid
p52
I128172
sVrevid
p53
I251033732
sVuser
p54
VSade
p55
sVparentid
p56
I242669112
sVns
p57
I0
sVsize
p58
I3042
sa(dp59
Vcomment
p60
VAdded Tor.
p61
sVsizediff
p62
I267
sVpageid
p63
I7734968
sVtitle
p64
VList of trademarked open-source software
p65
sVtimestamp
p66
V2008-11-10T04:14:22Z
p67
sVtags
p68
(lp69
sVuserid
p70
I128172
sVrevid
p71
I250802018
sVuser
p72
VSade
p73
sVparentid
p74
I245979491
sVns
p75
I0
sVsize
p76
I7688
sa(dp77
Vcomment
p78
VReverted old vandalism.
p79
sVsizediff
p80
I0
sVpageid
p81
I429624
sVtitle
p82
VAsk.com
p83
sVtimestamp
p84
V2008-11-04T00:41:29Z
p85
sVtags
p86
(lp87
sVuserid
p88
I128172
sVrevid
p89
I249534573
sVuser
p90
VSade
p91
sVparentid
p92
I248910039
sVns
p93
I0
sVsize
p94
I10096
sa(dp95
Vcomment
p96
VAdded Category:XML-based standards.
p97
sVsizediff
p98
I33
sVpageid
p99
I2831978
sVtitle
p100
VSitemaps
p101
sVtimestamp
p102
V2008-11-02T18:46:26Z
p103
sVtags
p104
(lp105
sVuserid
p106
I128172
sVrevid
p107
I249233079
sVuser
p108
VSade
p109
sVparentid
p110
I247608063
sVns
p111
I0
sVsize
p112
I7762
sa(dp113
Vcomment
p114
VFixed grammar.
p115
sVsizediff
p116
I0
sVpageid
p117
I19640
sVtitle
p118
VMilton Friedman
p119
sVtimestamp
p120
V2008-10-07T03:34:52Z
p121
sVtags
p122
(lp123
sVuserid
p124
I128172
sVrevid
p125
I243582211
sVuser
p126
VSade
p127
sVparentid
p128
I243412307
sVns
p129
I0
sVsize
p130
I50973
sa(dp131
Vcomment
p132
V/* Controversy */ Removed weasel words and POV.
p133
sVsizediff
p134
I-38
sVpageid
p135
I26161523
sVtitle
p136
VRapeLay
p137
sVtimestamp
p138
V2008-10-01T19:30:54Z
p139
sVtags
p140
(lp141
sVuserid
p142
I128172
sVrevid
p143
I242315708
sVuser
p144
VSade
p145
sVparentid
p146
I230711342
sVns
p147
I0
sVsize
p148
I8636
sa(dp149
Vcomment
p150
V/* Architecture */ Fixed grammar.
p151
sVsizediff
p152
I0
sVpageid
p153
I8612078
sVtitle
p154
VVarnish (software)
p155
sVtimestamp
p156
V2008-09-30T22:37:07Z
p157
sVtags
p158
(lp159
sVuserid
p160
I128172
sVrevid
p161
I242100570
sVuser
p162
VSade
p163
sVparentid
p164
I240430216
sVns
p165
I0
sVsize
p166
I4500
sa(dp167
Vcomment
p168
VRestored more readable introduction.
p169
sVsizediff
p170
I29
sVpageid
p171
I21345243
sVtitle
p172
VMarquis de Sade
p173
sVtimestamp
p174
V2008-09-29T20:49:56Z
p175
sVtags
p176
(lp177
sVuserid
p178
I128172
sVrevid
p179
I241856414
sVuser
p180
VSade
p181
sVparentid
p182
I241758950
sVns
p183
I0
sVsize
p184
I34207
sa(dp185
Vcomment
p186
VFixed biased wording.
p187
sVsizediff
p188
I6
sVpageid
p189
I1048031
sVtitle
p190
VFactCheck.org
p191
sVtimestamp
p192
V2008-09-29T20:15:03Z
p193
sVtags
p194
(lp195
sVuserid
p196
I128172
sVrevid
p197
I241848311
sVuser
p198
VSade
p199
sVparentid
p200
I241454969
sVns
p201
I0
sVsize
p202
I4755
sa(dp203
Vcomment
p204
VRemoved self-aggrandizement.
p205
sVsizediff
p206
I-497
sVpageid
p207
I346215
sVtitle
p208
VBlogsphere
p209
sVtimestamp
p210
V2008-09-14T21:19:21Z
p211
sVtags
p212
(lp213
sVuserid
p214
I128172
sVrevid
p215
I238440380
sVuser
p216
VSade
p217
sVparentid
p218
I187145119
sVns
p219
I0
sVsize
p220
I810
sa(dp221
Vcomment
p222
V/* SCO litigation */ Corrected grammar.
p223
sVsizediff
p224
I-1
sVpageid
p225
I21347315
sVtitle
p226
VLinux kernel
p227
sVtimestamp
p228
V2008-09-13T03:08:09Z
p229
sVtags
p230
(lp231
sVuserid
p232
I128172
sVrevid
p233
I238070547
sVuser
p234
VSade
p235
sVparentid
p236
I237501887
sVns
p237
I0
sVsize
p238
I42205
sa(dp239
Vcomment
p240
VFixed grammar.
p241
sVsizediff
p242
I2
sVpageid
p243
I1070321
sVtitle
p244
VCooler Heads Coalition
p245
sVtimestamp
p246
V2008-09-01T23:09:22Z
p247
sVtags
p248
(lp249
sVuserid
p250
I128172
sVrevid
p251
I235693970
sVuser
p252
VSade
p253
sVparentid
p254
I232272258
sVns
p255
I0
sVsize
p256
I8394
sa(dp257
Vcomment
p258
V/* Births */ Changed "poetess" to poet.
p259
sVsizediff
p260
I-3
sVpageid
p261
I1711
sVtitle
p262
VAugust 31
p263
sVtimestamp
p264
V2008-08-30T03:00:56Z
p265
sVtags
p266
(lp267
sVuserid
p268
I128172
sVrevid
p269
I235114996
sVuser
p270
VSade
p271
sVparentid
p272
I235108990
sVns
p273
I0
sVsize
p274
I21035
sa(dp275
Vcomment
p276
VFixed grammar.
p277
sVsizediff
p278
I17
sVpageid
p279
I13135377
sVtitle
p280
VPlumi
p281
sVtimestamp
p282
V2008-08-28T01:16:53Z
p283
sVtags
p284
(lp285
sVuserid
p286
I128172
sVrevid
p287
I234691978
sVuser
p288
VSade
p289
sVparentid
p290
I231454857
sVns
p291
I0
sVsize
p292
I2473
sa(dp293
Vcomment
p294
VUpdated description.
p295
sVsizediff
p296
I-18
sVpageid
p297
I498971
sVtitle
p298
VSuper Bowl XXXVIII halftime show controversy
p299
sVtimestamp
p300
V2008-08-27T21:15:35Z
p301
sVtags
p302
(lp303
sVuserid
p304
I128172
sVrevid
p305
I234650589
sVuser
p306
VSade
p307
sVparentid
p308
I234626642
sVns
p309
I0
sVsize
p310
I48413
sa(dp311
Vcomment
p312
VUndoing POV and factually inaccurate changes.
p313
sVsizediff
p314
I-100
sVpageid
p315
I682195
sVtitle
p316
VAafia Siddiqui
p317
sVtimestamp
p318
V2008-08-25T06:37:32Z
p319
sVtags
p320
(lp321
sVuserid
p322
I128172
sVrevid
p323
I234088322
sVuser
p324
VSade
p325
sVparentid
p326
I233982381
sVns
p327
I0
sVsize
p328
I36165
sa(dp329
Vcomment
p330
V/* Domain structure for .me */ Removed spam.
p331
sVsizediff
p332
I-118
sVpageid
p333
I7164080
sVtitle
p334
V.me
p335
sVtimestamp
p336
V2008-08-25T06:30:54Z
p337
sVtags
p338
(lp339
sVuserid
p340
I128172
sVrevid
p341
I234087626
sVuser
p342
VSade
p343
sVparentid
p344
I233605591
sVns
p345
I0
sVsize
p346
I4728
sa(dp347
Vcomment
p348
VRemoved tangential details about creator that read like a cv.
p349
sVsizediff
p350
I-1300
sVpageid
p351
I8955535
sVtitle
p352
VDontDateHimGirl.com
p353
sVtimestamp
p354
V2008-08-20T04:39:30Z
p355
sVtags
p356
(lp357
sVuserid
p358
I128172
sVrevid
p359
I233048791
sVuser
p360
VSade
p361
sVparentid
p362
I232053956
sVns
p363
I0
sVsize
p364
I4769
sa(dp365
Vcomment
p366
V/* Wizard rock */ Added source.
p367
sVsizediff
p368
I92
sVpageid
p369
I906492
sVtitle
p370
VHarry Potter fandom
p371
sVtimestamp
p372
V2008-08-20T04:29:59Z
p373
sVtags
p374
(lp375
sVuserid
p376
I128172
sVrevid
p377
I233047683
sVuser
p378
VSade
p379
sVparentid
p380
I232997979
sVns
p381
I0
sVsize
p382
I54153
sa(dp383
Vcomment
p384
VReworded sentence to improve grammar.
p385
sVsizediff
p386
I-1
sVpageid
p387
I682195
sVtitle
p388
VAafia Siddiqui
p389
sVtimestamp
p390
V2008-08-20T04:17:26Z
p391
sVtags
p392
(lp393
sVuserid
p394
I128172
sVrevid
p395
I233046199
sVuser
p396
VSade
p397
sVparentid
p398
I233043458
sVns
p399
I0
sVsize
p400
I35211
sa(dp401
Vcomment
p402
V[[WP:UNDO|Undid]] revision 232475958 by [[Special:Contributions/79.138.184.151|79.138.184.151]] ([[User talk:79.138.184.151|talk]])
p403
sVsizediff
p404
I0
sVpageid
p405
I682195
sVtitle
p406
VAafia Siddiqui
p407
sVtimestamp
p408
V2008-08-19T21:51:27Z
p409
sVtags
p410
(lp411
sVuserid
p412
I128172
sVrevid
p413
I232990098
sVuser
p414
VSade
p415
sVparentid
p416
I232990037
sVns
p417
I0
sVsize
p418
I35214
sa(dp419
Vcomment
p420
VUndid copyright violation.
p421
sVsizediff
p422
I-2812
sVpageid
p423
I682195
sVtitle
p424
VAafia Siddiqui
p425
sVtimestamp
p426
V2008-08-19T21:50:56Z
p427
sVtags
p428
(lp429
sVuserid
p430
I128172
sVrevid
p431
I232990037
sVuser
p432
VSade
p433
sVparentid
p434
I232643251
sVns
p435
I0
sVsize
p436
I35214
sa(dp437
Vcomment
p438
VRemoved trivia.
p439
sVsizediff
p440
I-3279
sVpageid
p441
I8884
sVtitle
p442
VDanse Macabre
p443
sVtimestamp
p444
V2008-08-19T21:49:19Z
p445
sVtags
p446
(lp447
sVuserid
p448
I128172
sVrevid
p449
I232989774
sVuser
p450
VSade
p451
sVparentid
p452
I232452587
sVns
p453
I0
sVsize
p454
I11722
sa(dp455
Vcomment
p456
V/* Temporary ban in mainland China */ Corrected tense.
p457
sVsizediff
p458
I-4
sVpageid
p459
I52227
sVtitle
p460
VSourceForge
p461
sVtimestamp
p462
V2008-08-18T07:24:19Z
p463
sVtags
p464
(lp465
sVuserid
p466
I128172
sVrevid
p467
I232640417
sVuser
p468
VSade
p469
sVparentid
p470
I231934420
sVns
p471
I0
sVsize
p472
I6970
sa(dp473
Vcomment
p474
VFixed grammar.
p475
sVsizediff
p476
I1
sVpageid
p477
I39184
sVtitle
p478
VNTFS
p479
sVtimestamp
p480
V2008-08-17T03:50:04Z
p481
sVtags
p482
(lp483
sVuserid
p484
I128172
sVrevid
p485
I232431283
sVuser
p486
VSade
p487
sVparentid
p488
I232381040
sVns
p489
I0
sVsize
p490
I38596
sa(dp491
Vcomment
p492
VUndid biased, unencyclopedic,  and inaccurate edits.
p493
sVsizediff
p494
I-1294
sVpageid
p495
I682195
sVtitle
p496
VAafia Siddiqui
p497
sVtimestamp
p498
V2008-08-16T22:26:04Z
p499
sVtags
p500
(lp501
sVuserid
p502
I128172
sVrevid
p503
I232386946
sVuser
p504
VSade
p505
sVparentid
p506
I232386457
sVns
p507
I0
sVsize
p508
I35286
sa(dp509
Vcomment
p510
V/* Medical condition */ Removed vandalism.
p511
sVsizediff
p512
I-95
sVpageid
p513
I682195
sVtitle
p514
VAafia Siddiqui
p515
sVtimestamp
p516
V2008-08-16T22:22:38Z
p517
sVtags
p518
(lp519
sVuserid
p520
I128172
sVrevid
p521
I232386457
sVuser
p522
VSade
p523
sVparentid
p524
I232386217
sVns
p525
I0
sVsize
p526
I36580
sa(dp527
Vcomment
p528
VUndid indecipherable additions.
p529
sVsizediff
p530
I-576
sVpageid
p531
I682195
sVtitle
p532
VAafia Siddiqui
p533
sVtimestamp
p534
V2008-08-16T22:21:03Z
p535
sVtags
p536
(lp537
sVuserid
p538
I128172
sVrevid
p539
I232386217
sVuser
p540
VSade
p541
sVparentid
p542
I232374897
sVns
p543
I0
sVsize
p544
I36675
sa(dp545
Vcomment
p546
VCommented.
p547
sVsizediff
p548
I202
sVpageid
p549
I13524960
sVtitle
p550
VFile talk:Resident Evil Extinction.jpg
p551
sVtimestamp
p552
V2008-08-16T22:18:03Z
p553
sVtags
p554
(lp555
sVuserid
p556
I128172
sVrevid
p557
I232385801
sVuser
p558
VSade
p559
sVparentid
p560
I161708379
sVns
p561
I7
sVsize
p562
I683
sa(dp563
Vcomment
p564
V/* Critical reception and box office */ Removed out-of-date statement.
p565
sVsizediff
p566
I-76
sVpageid
p567
I797798
sVtitle
p568
VResident Evil: Apocalypse
p569
sVtimestamp
p570
V2008-08-16T22:10:53Z
p571
sVtags
p572
(lp573
sVuserid
p574
I128172
sVrevid
p575
I232384744
sVuser
p576
VSade
p577
sVparentid
p578
I231916059
sVns
p579
I0
sVsize
p580
I32144
sa(dp581
Vcomment
p582
V/* Second capture */ Filled in censored word.
p583
sVsizediff
p584
I-9
sVpageid
p585
I682195
sVtitle
p586
VAafia Siddiqui
p587
sVtimestamp
p588
V2008-08-14T01:33:12Z
p589
sVtags
p590
(lp591
sVuserid
p592
I128172
sVrevid
p593
I231805938
sVuser
p594
VSade
p595
sVparentid
p596
I231805552
sVns
p597
I0
sVsize
p598
I33247
sa(dp599
Vcomment
p600
V/* Disappearance and alleged al-Qaeda ties */ Removed original research.
p601
sVsizediff
p602
I-85
sVpageid
p603
I682195
sVtitle
p604
VAafia Siddiqui
p605
sVtimestamp
p606
V2008-08-14T01:30:35Z
p607
sVtags
p608
(lp609
sVuserid
p610
I128172
sVrevid
p611
I231805552
sVuser
p612
VSade
p613
sVparentid
p614
I231803744
sVns
p615
I0
sVsize
p616
I33256
sa(dp617
Vcomment
p618
VEdited to reflect that this was not just an accusation.
p619
sVsizediff
p620
I-34
sVpageid
p621
I1229692
sVtitle
p622
VMediaDefender
p623
sVtimestamp
p624
V2008-07-29T04:19:43Z
p625
sVtags
p626
(lp627
sVuserid
p628
I128172
sVrevid
p629
I228537914
sVuser
p630
VSade
p631
sVparentid
p632
I223993650
sVns
p633
I0
sVsize
p634
I14584
sa(dp635
Vcomment
p636
VUndid self; I didn't realize MediaDefender had admitted their role in the attack.
p637
sVsizediff
p638
I-36
sVpageid
p639
I2075054
sVtitle
p640
VDiscovery Digital Networks
p641
sVtimestamp
p642
V2008-07-29T04:18:33Z
p643
sVtags
p644
(lp645
sVuserid
p646
I128172
sVrevid
p647
I228537765
sVuser
p648
VSade
p649
sVparentid
p650
I228536662
sVns
p651
I0
sVsize
p652
I24566
sa(dp653
Vcomment
p654
V/* MediaDefender Controversy */ Edited for neutrality.
p655
sVsizediff
p656
I36
sVpageid
p657
I2075054
sVtitle
p658
VDiscovery Digital Networks
p659
sVtimestamp
p660
V2008-07-29T04:09:24Z
p661
sVtags
p662
(lp663
sVuserid
p664
I128172
sVrevid
p665
I228536662
sVuser
p666
VSade
p667
sVparentid
p668
I227907418
sVns
p669
I0
sVsize
p670
I24602
sa(dp671
Vcomment
p672
V/* Masami Hirukawa */ Removed another allusion to this misinterpretation.
p673
sVsizediff
p674
I-60
sVpageid
p675
I2033960
sVtitle
p676
VList of Paranoia Agent characters
p677
sVtimestamp
p678
V2008-07-27T21:19:34Z
p679
sVtags
p680
(lp681
sVuserid
p682
I128172
sVrevid
p683
I228258480
sVuser
p684
VSade
p685
sVparentid
p686
I228258045
sVns
p687
I0
sVsize
p688
I39067
sa(dp689
Vcomment
p690
V/* Masami Hirukawa */ Removed misinterpretation of Hirukawa's motivation (consider that he asks unrelated people to call him "daddy.")
p691
sVsizediff
p692
I-86
sVpageid
p693
I2033960
sVtitle
p694
VList of Paranoia Agent characters
p695
sVtimestamp
p696
V2008-07-27T21:17:16Z
p697
sVtags
p698
(lp699
sVuserid
p700
I128172
sVrevid
p701
I228258045
sVuser
p702
VSade
p703
sVparentid
p704
I227078592
sVns
p705
I0
sVsize
p706
I39127
sa(dp707
Vcomment
p708
V/* Effect on Otaku */ Corrected my typo.
p709
sVsizediff
p710
I1
sVpageid
p711
I5116171
sVtitle
p712
VKaoru Kobayashi (murderer)
p713
sVtimestamp
p714
V2008-07-27T19:39:06Z
p715
sVtags
p716
(lp717
sVuserid
p718
I128172
sVrevid
p719
I228241150
sVuser
p720
VSade
p721
sVparentid
p722
I228240562
sVns
p723
I0
sVsize
p724
I13624
sa(dp725
Vcomment
p726
V/* Effect on Otaku */ Removed sentence which is not supported by its reference.
p727
sVsizediff
p728
I-587
sVpageid
p729
I5116171
sVtitle
p730
VKaoru Kobayashi (murderer)
p731
sVtimestamp
p732
V2008-07-27T19:35:29Z
p733
sVtags
p734
(lp735
sVuserid
p736
I128172
sVrevid
p737
I228240562
sVuser
p738
VSade
p739
sVparentid
p740
I224706381
sVns
p741
I0
sVsize
p742
I13623
sa(dp743
Vcomment
p744
V/* Trial and execution */ Corrected grammar.
p745
sVsizediff
p746
I2
sVpageid
p747
I1178150
sVtitle
p748
VTsutomu Miyazaki
p749
sVtimestamp
p750
V2008-07-27T19:20:37Z
p751
sVtags
p752
(lp753
sVuserid
p754
I128172
sVrevid
p755
I228238104
sVuser
p756
VSade
p757
sVparentid
p758
I226195755
sVns
p759
I0
sVsize
p760
I12491
sa(dp761
Vcomment
p762
V/* Investigation */ Corrected grammar.
p763
sVsizediff
p764
I-1
sVpageid
p765
I17837296
sVtitle
p766
VAkihabara massacre
p767
sVtimestamp
p768
V2008-07-27T19:11:00Z
p769
sVtags
p770
(lp771
sVuserid
p772
I128172
sVrevid
p773
I228236535
sVuser
p774
VSade
p775
sVparentid
p776
I227945867
sVns
p777
I0
sVsize
p778
I38352
sa(dp779
Vcomment
p780
V/* Cognitive behavior therapy */ Edited to avoid overstating reference.
p781
sVsizediff
p782
I-5
sVpageid
p783
I50798
sVtitle
p784
VInsomnia
p785
sVtimestamp
p786
V2008-07-25T05:14:28Z
p787
sVtags
p788
(lp789
sVuserid
p790
I128172
sVrevid
p791
I227775125
sVuser
p792
VSade
p793
sVparentid
p794
I227739725
sVns
p795
I0
sVsize
p796
I25066
sa(dp797
Vcomment
p798
V/* Litigation and Legal Victory for DontDateHimGirl.com */ Removed most of this title, as it wasn't a legal victory.
p799
sVsizediff
p800
I-42
sVpageid
p801
I8955535
sVtitle
p802
VDontDateHimGirl.com
p803
sVtimestamp
p804
V2008-07-25T04:39:07Z
p805
sVtags
p806
(lp807
sVuserid
p808
I128172
sVrevid
p809
I227771142
sVuser
p810
VSade
p811
sVparentid
p812
I221310710
sVns
p813
I0
sVsize
p814
I5299
sass.