(dp0
S'Shreshth91'
p1
(dp2
S'before_block'
p3
(lp4
(dp5
Vcomment
p6
V-
p7
sVsizediff
p8
I-26
sVpageid
p9
I7518322
sVtitle
p10
VWikipedia:WikiProject WikipediaWeekly/delivery
p11
sVtimestamp
p12
V2007-05-25T10:14:58Z
p13
sVtags
p14
(lp15
sVuserid
p16
I302409
sVrevid
p17
I133383835
sVuser
p18
VShreshth91
p19
sVparentid
p20
I131920082
sVns
p21
I4
sVsize
p22
I1409
sa(dp23
Vcomment
p24
Vimg_capt
p25
sVsizediff
p26
I124
sVpageid
p27
I7629286
sVtitle
p28
VHarry Potter (film series)
p29
sVtimestamp
p30
V2007-04-27T15:59:48Z
p31
sVtags
p32
(lp33
sVuserid
p34
I302409
sVrevid
p35
I126413025
sVuser
p36
VShreshth91
p37
sVparentid
p38
I125572308
sVns
p39
I0
sVsize
p40
I10650
sa(dp41
Vcomment
p42
VReverted edits by [[Special:Contributions/69.114.142.6|69.114.142.6]] ([[User talk:69.114.142.6|talk]]) to last version by Thelifeofaok
p43
sVsizediff
p44
I-6
sVpageid
p45
I446931
sVtitle
p46
VMetro Blue Line (Minnesota)
p47
sVtimestamp
p48
V2007-04-23T05:49:32Z
p49
sVtags
p50
(lp51
sVuserid
p52
I302409
sVrevid
p53
I125083811
sVuser
p54
VShreshth91
p55
sVparentid
p56
I125024136
sVns
p57
I0
sVsize
p58
I21945
sa(dp59
Vcomment
p60
V/* [[Education in India]] */ reply
p61
sVsizediff
p62
I377
sVpageid
p63
I1436823
sVtitle
p64
VWikipedia:Notice board for India-related topics/INCOTW
p65
sVtimestamp
p66
V2007-04-20T04:50:04Z
p67
sVtags
p68
(lp69
sVuserid
p70
I302409
sVrevid
p71
I124283320
sVuser
p72
VShreshth91
p73
sVparentid
p74
I124032979
sVns
p75
I4
sVsize
p76
I9069
sass.